libcvc4parser.so.3 libcvc4parser2 #MINVER#
 _ZN4CVC410RecordTypeD0Ev@Base 1.4
 _ZN4CVC410RecordTypeD1Ev@Base 1.4
 _ZN4CVC410RecordTypeD2Ev@Base 1.4
 _ZN4CVC410StringTypeD0Ev@Base 1.4
 _ZN4CVC410StringTypeD1Ev@Base 1.4
 _ZN4CVC410StringTypeD2Ev@Base 1.4
 _ZN4CVC411BooleanTypeD0Ev@Base 1.4
 _ZN4CVC411BooleanTypeD1Ev@Base 1.4
 _ZN4CVC411BooleanTypeD2Ev@Base 1.4
 _ZN4CVC411IntegerTypeD0Ev@Base 1.4
 _ZN4CVC411IntegerTypeD1Ev@Base 1.4
 _ZN4CVC411IntegerTypeD2Ev@Base 1.4
 _ZN4CVC412DatatypeTypeD0Ev@Base 1.4
 _ZN4CVC412DatatypeTypeD1Ev@Base 1.4
 _ZN4CVC412DatatypeTypeD2Ev@Base 1.4
 _ZN4CVC412FunctionTypeD0Ev@Base 1.4
 _ZN4CVC412FunctionTypeD1Ev@Base 1.4
 _ZN4CVC412FunctionTypeD2Ev@Base 1.4
 _ZN4CVC413BitVectorTypeD0Ev@Base 1.4
 _ZN4CVC413BitVectorTypeD1Ev@Base 1.4
 _ZN4CVC413BitVectorTypeD2Ev@Base 1.4
 _ZN4CVC413SubrangeBoundD1Ev@Base 1.4
 _ZN4CVC413SubrangeBoundD2Ev@Base 1.4
 _ZN4CVC414SubrangeBoundsC1ERKNS_13SubrangeBoundES3_@Base 1.4
 _ZN4CVC414SubrangeBoundsC2ERKNS_13SubrangeBoundES3_@Base 1.4
 _ZN4CVC415ConstructorTypeD0Ev@Base 1.4
 _ZN4CVC415ConstructorTypeD1Ev@Base 1.4
 _ZN4CVC415ConstructorTypeD2Ev@Base 1.4
 _ZN4CVC419DatatypeConstructorD1Ev@Base 1.4
 _ZN4CVC419DatatypeConstructorD2Ev@Base 1.4
 _ZN4CVC419DeclarationSequenceD0Ev@Base 1.4
 _ZN4CVC419DeclarationSequenceD1Ev@Base 1.4
 _ZN4CVC419DeclarationSequenceD2Ev@Base 1.4
 _ZN4CVC419SortConstructorTypeD0Ev@Base 1.4
 _ZN4CVC419SortConstructorTypeD1Ev@Base 1.4
 _ZN4CVC419SortConstructorTypeD2Ev@Base 1.4
 _ZN4CVC422DatatypeConstructorArgD1Ev@Base 1.4
 _ZN4CVC422DatatypeConstructorArgD2Ev@Base 1.4
 _ZN4CVC424IllegalArgumentExceptionC1EPKcS2_S2_@Base 1.4
 _ZN4CVC424IllegalArgumentExceptionC2EPKcS2_S2_@Base 1.4
 _ZN4CVC424IllegalArgumentExceptionD0Ev@Base 1.4
 _ZN4CVC424IllegalArgumentExceptionD1Ev@Base 1.4
 _ZN4CVC424IllegalArgumentExceptionD2Ev@Base 1.4
 _ZN4CVC44kindlsERSoNS0_6Kind_tE@Base 1.4
 _ZN4CVC45SExprC1EPKc@Base 1.4
 _ZN4CVC45SExprC1ERKNS_12SExprKeywordE@Base 1.4
 _ZN4CVC45SExprC1ERKNS_7IntegerE@Base 1.4
 _ZN4CVC45SExprC1ERKS0_@Base 1.4
 _ZN4CVC45SExprC1ERKSs@Base 1.4
 _ZN4CVC45SExprC2EPKc@Base 1.4
 _ZN4CVC45SExprC2ERKNS_12SExprKeywordE@Base 1.4
 _ZN4CVC45SExprC2ERKNS_7IntegerE@Base 1.4
 _ZN4CVC45SExprC2ERKS0_@Base 1.4
 _ZN4CVC45SExprC2ERKSs@Base 1.4
 _ZN4CVC45SExprD1Ev@Base 1.4
 _ZN4CVC45SExprD2Ev@Base 1.4
 _ZN4CVC45SExpraSERKS0_@Base 1.4
 _ZN4CVC46parser11InputStreamD0Ev@Base 1.4
 _ZN4CVC46parser11InputStreamD1Ev@Base 1.4
 _ZN4CVC46parser11InputStreamD2Ev@Base 1.4
 _ZN4CVC46parser13ParserBuilder10withChecksEb@Base 1.4
 _ZN4CVC46parser13ParserBuilder11withOptionsERKNS_7OptionsE@Base 1.4
 _ZN4CVC46parser13ParserBuilder12withFilenameERKSs@Base 1.4
 _ZN4CVC46parser13ParserBuilder13withFileInputEv@Base 1.4
 _ZN4CVC46parser13ParserBuilder13withParseOnlyEb@Base 1.4
 _ZN4CVC46parser13ParserBuilder14withStrictModeEb@Base 1.4
 _ZN4CVC46parser13ParserBuilder15withExprManagerEPNS_11ExprManagerE@Base 1.4
 _ZN4CVC46parser13ParserBuilder15withForcedLogicERKSs@Base 1.4
 _ZN4CVC46parser13ParserBuilder15withIncludeFileEb@Base 1.4
 _ZN4CVC46parser13ParserBuilder15withStreamInputERSi@Base 1.4
 _ZN4CVC46parser13ParserBuilder15withStringInputERKSs@Base 1.4
 _ZN4CVC46parser13ParserBuilder17withInputLanguageENS_8language5input8LanguageE@Base 1.4
 _ZN4CVC46parser13ParserBuilder27withLineBufferedStreamInputERSi@Base 1.4
 _ZN4CVC46parser13ParserBuilder4initEPNS_11ExprManagerERKSs@Base 1.4
 _ZN4CVC46parser13ParserBuilder5buildEv@Base 1.4
 _ZN4CVC46parser13ParserBuilder8withMmapEb@Base 1.4
 _ZN4CVC46parser13ParserBuilderC1EPNS_11ExprManagerERKSs@Base 1.4
 _ZN4CVC46parser13ParserBuilderC1EPNS_11ExprManagerERKSsRKNS_7OptionsE@Base 1.4
 _ZN4CVC46parser13ParserBuilderC2EPNS_11ExprManagerERKSs@Base 1.4
 _ZN4CVC46parser13ParserBuilderC2EPNS_11ExprManagerERKSsRKNS_7OptionsE@Base 1.4
 _ZN4CVC46parser15ParserExceptionC1ERKSsS3_mm@Base 1.4
 _ZN4CVC46parser15ParserExceptionC2ERKSsS3_mm@Base 1.4
 _ZN4CVC46parser15ParserExceptionD0Ev@Base 1.4
 _ZN4CVC46parser15ParserExceptionD1Ev@Base 1.4
 _ZN4CVC46parser15ParserExceptionD2Ev@Base 1.4
 _ZN4CVC46parser20InputStreamExceptionC1ERKSs@Base 1.4
 _ZN4CVC46parser20InputStreamExceptionC2ERKSs@Base 1.4
 _ZN4CVC46parser20InputStreamExceptionD0Ev@Base 1.4
 _ZN4CVC46parser20InputStreamExceptionD1Ev@Base 1.4
 _ZN4CVC46parser20InputStreamExceptionD2Ev@Base 1.4
 _ZN4CVC46parser24ParserEndOfFileExceptionD0Ev@Base 1.4
 _ZN4CVC46parser24ParserEndOfFileExceptionD1Ev@Base 1.4
 _ZN4CVC46parser24ParserEndOfFileExceptionD2Ev@Base 1.4
 _ZN4CVC46parser5Input12newFileInputENS_8language5input8LanguageERKSsb@Base 1.4
 _ZN4CVC46parser5Input14getInputStreamEv@Base 1.4
 _ZN4CVC46parser5Input14newStreamInputENS_8language5input8LanguageERSiRKSsb@Base 1.4
 _ZN4CVC46parser5Input14newStringInputENS_8language5input8LanguageERKSsS6_@Base 1.4
 _ZN4CVC46parser5InputC1ERNS0_11InputStreamE@Base 1.4
 _ZN4CVC46parser5InputC2ERNS0_11InputStreamE@Base 1.4
 _ZN4CVC46parser5InputD0Ev@Base 1.4
 _ZN4CVC46parser5InputD1Ev@Base 1.4
 _ZN4CVC46parser5InputD2Ev@Base 1.4
 _ZN4CVC46parser6Parser10checkArityENS_4kind6Kind_tEj@Base 1.4
 _ZN4CVC46parser6Parser10defineTypeERKSsRKNS_4TypeE@Base 1.4
 _ZN4CVC46parser6Parser10defineTypeERKSsRKSt6vectorINS_4TypeESaIS5_EERKS5_@Base 1.4
 _ZN4CVC46parser6Parser10isDeclaredERKSsNS0_10SymbolTypeE@Base 1.4
 _ZN4CVC46parser6Parser10logicIsSetEv@Base 1.4
 _ZN4CVC46parser6Parser10mkBoundVarERKSsRKNS_4TypeE@Base 1.4
 _ZN4CVC46parser6Parser10mkFunctionERKSsRKNS_4TypeEj@Base 1.4
 _ZN4CVC46parser6Parser11addOperatorENS_4kind6Kind_tE@Base 1.4
 _ZN4CVC46parser6Parser11getFunctionERKSs@Base 1.4
 _ZN4CVC46parser6Parser11getVariableERKSs@Base 1.4
 _ZN4CVC46parser6Parser11isPredicateERKSs@Base 1.4
 _ZN4CVC46parser6Parser11mkBoundVarsESt6vectorISsSaISsEERKNS_4TypeE@Base 1.4
 _ZN4CVC46parser6Parser11nextCommandEv@Base 1.4
 _ZN4CVC46parser6Parser13checkOperatorENS_4kind6Kind_tEj@Base 1.4
 _ZN4CVC46parser6Parser14defineFunctionERKSsRKNS_4ExprEb@Base 1.4
 _ZN4CVC46parser6Parser14isFunctionLikeERKSs@Base 1.4
 _ZN4CVC46parser6Parser14nextExpressionEv@Base 1.4
 _ZN4CVC46parser6Parser14preemptCommandEPNS_7CommandE@Base 1.4
 _ZN4CVC46parser6Parser16checkDeclarationERKSsNS0_16DeclarationCheckENS0_10SymbolTypeESs@Base 1.4
 _ZN4CVC46parser6Parser16isUnresolvedTypeERKSs@Base 1.4
 _ZN4CVC46parser6Parser16mkUnresolvedTypeERKSs@Base 1.4
 _ZN4CVC46parser6Parser17checkFunctionLikeERKSs@Base 1.4
 _ZN4CVC46parser6Parser17isDefinedFunctionENS_4ExprE@Base 1.4
 _ZN4CVC46parser6Parser17isDefinedFunctionERKSs@Base 1.4
 _ZN4CVC46parser6Parser17mkSortConstructorERKSsm@Base 1.4
 _ZN4CVC46parser6Parser19mkAnonymousFunctionERKSsRKNS_4TypeEj@Base 1.4
 _ZN4CVC46parser6Parser20unimplementedFeatureERKSs@Base 1.4
 _ZN4CVC46parser6Parser21attributeNotSupportedERKSs@Base 1.4
 _ZN4CVC46parser6Parser21mkMutualDatatypeTypesERKSt6vectorINS_8DatatypeESaIS3_EE@Base 1.4
 _ZN4CVC46parser6Parser23defineParameterizedTypeERKSsRKSt6vectorINS_4TypeESaIS5_EERKS5_@Base 1.4
 _ZN4CVC46parser6Parser27mkUnresolvedTypeConstructorERKSsRKSt6vectorINS_4TypeESaIS5_EE@Base 1.4
 _ZN4CVC46parser6Parser27mkUnresolvedTypeConstructorERKSsm@Base 1.4
 _ZN4CVC46parser6Parser29reserveSymbolAtAssertionLevelERKSs@Base 1.4
 _ZN4CVC46parser6Parser5mkVarERKSsRKNS_4TypeEj@Base 1.4
 _ZN4CVC46parser6Parser6mkSortERKSsj@Base 1.4
 _ZN4CVC46parser6Parser6mkVarsESt6vectorISsSaISsEERKNS_4TypeEj@Base 1.4
 _ZN4CVC46parser6Parser7getSortERKSs@Base 1.4
 _ZN4CVC46parser6Parser7getSortERKSsRKSt6vectorINS_4TypeESaIS5_EE@Base 1.4
 _ZN4CVC46parser6Parser7getTypeERKSsNS0_10SymbolTypeE@Base 1.4
 _ZN4CVC46parser6Parser8getArityERKSs@Base 1.4
 _ZN4CVC46parser6Parser8popScopeEv@Base 1.4
 _ZN4CVC46parser6Parser9defineVarERKSsRKNS_4ExprEb@Base 1.4
 _ZN4CVC46parser6Parser9getSymbolERKSsNS0_10SymbolTypeE@Base 1.4
 _ZN4CVC46parser6Parser9isBooleanERKSs@Base 1.4
 _ZN4CVC46parser6ParserC1EPNS_11ExprManagerEPNS0_5InputEbb@Base 1.4
 _ZN4CVC46parser6ParserC2EPNS_11ExprManagerEPNS0_5InputEbb@Base 1.4
 _ZN4CVC46parser6ParserD0Ev@Base 1.4
 _ZN4CVC46parser6ParserD1Ev@Base 1.4
 _ZN4CVC46parser6ParserD2Ev@Base 1.4
 _ZN4CVC47SetTypeD0Ev@Base 1.4
 _ZN4CVC47SetTypeD1Ev@Base 1.4
 _ZN4CVC47SetTypeD2Ev@Base 1.4
 _ZN4CVC48DatatypeC1ERKS0_@Base 1.4
 _ZN4CVC48DatatypeC2ERKS0_@Base 1.4
 _ZN4CVC48DatatypeD1Ev@Base 1.4
 _ZN4CVC48DatatypeD2Ev@Base 1.4
 _ZN4CVC48EmptySetD1Ev@Base 1.4
 _ZN4CVC48EmptySetD2Ev@Base 1.4
 _ZN4CVC48RationalC1Ei@Base 1.4
 _ZN4CVC48RationalC2Ei@Base 1.4
 _ZN4CVC48RealTypeD0Ev@Base 1.4
 _ZN4CVC48RealTypeD1Ev@Base 1.4
 _ZN4CVC48RealTypeD2Ev@Base 1.4
 _ZN4CVC48SortTypeD0Ev@Base 1.4
 _ZN4CVC48SortTypeD1Ev@Base 1.4
 _ZN4CVC48SortTypeD2Ev@Base 1.4
 _ZN4CVC49ArrayTypeD0Ev@Base 1.4
 _ZN4CVC49ArrayTypeD1Ev@Base 1.4
 _ZN4CVC49ArrayTypeD2Ev@Base 1.4
 _ZN4CVC49BitVectorC1ERKSsj@Base 1.4
 _ZN4CVC49BitVectorC2ERKSsj@Base 1.4
 _ZN4CVC49ExceptionC1EPKc@Base 1.4
 _ZN4CVC49ExceptionC1ERKSs@Base 1.4
 _ZN4CVC49ExceptionC2EPKc@Base 1.4
 _ZN4CVC49ExceptionC2ERKSs@Base 1.4
 _ZN4CVC49ExceptionD0Ev@Base 1.4
 _ZN4CVC49ExceptionD1Ev@Base 1.4
 _ZN4CVC49ExceptionD2Ev@Base 1.4
 _ZN4CVC49LogicInfoD1Ev@Base 1.4
 _ZN4CVC49LogicInfoD2Ev@Base 1.4
 _ZN4CVC49TupleTypeD0Ev@Base 1.4
 _ZN4CVC49TupleTypeD1Ev@Base 1.4
 _ZN4CVC49TupleTypeD2Ev@Base 1.4
 _ZN9__gnu_cxx21_Hashtable_prime_listImE16__stl_prime_listE@Base 1.4
 _ZNK4CVC413SubrangeBound8getBoundEv@Base 1.4
 _ZNK4CVC44Expr11getChildrenEv@Base 1.4
 _ZNK4CVC45SExpr8getValueEv@Base 1.4
 _ZNK4CVC46Record4findESs@Base 1.4
 _ZNK4CVC46parser11InputStream7getNameEv@Base 1.4
 _ZNK4CVC46parser15ParserException8toStreamERSo@Base 1.4
 _ZNK4CVC49Exception4whatEv@Base 1.4
 _ZNK4CVC49Exception8toStreamERSo@Base 1.4
 _ZNKSt5ctypeIcE8do_widenEc@Base 1.4
 _ZNSs12_S_constructIPcEES0_T_S1_RKSaIcESt20forward_iterator_tag@Base 1.4
 _ZNSt12_Destroy_auxILb0EE9__destroyIPSsEEvT_S3_@Base 1.4
 _ZNSt15basic_stringbufIcSt11char_traitsIcESaIcEED0Ev@Base 1.4
 _ZNSt15basic_stringbufIcSt11char_traitsIcESaIcEED1Ev@Base 1.4
 _ZNSt15basic_stringbufIcSt11char_traitsIcESaIcEED2Ev@Base 1.4
 _ZNSt20__uninitialized_copyILb0EE13__uninit_copyIN9__gnu_cxx17__normal_iteratorIPKN4CVC45SExprESt6vectorIS5_SaIS5_EEEEPS5_EET0_T_SE_SD_@Base 1.4
 _ZNSt4pairISsN4CVC44ExprEED1Ev@Base 1.4
 _ZNSt4pairISsN4CVC44ExprEED2Ev@Base 1.4
 _ZNSt4pairISsN4CVC44TypeEEC1ERKSsRKS1_@Base 1.4
 _ZNSt4pairISsN4CVC44TypeEEC2ERKSsRKS1_@Base 1.4
 _ZNSt4pairISsN4CVC44TypeEED1Ev@Base 1.4
 _ZNSt4pairISsN4CVC44TypeEED2Ev@Base 1.4
 _ZNSt6vectorIN4CVC412DatatypeTypeESaIS1_EEC1ERKS3_@Base 1.4
 _ZNSt6vectorIN4CVC412DatatypeTypeESaIS1_EEC2ERKS3_@Base 1.4
 _ZNSt6vectorIN4CVC412DatatypeTypeESaIS1_EED1Ev@Base 1.4
 _ZNSt6vectorIN4CVC412DatatypeTypeESaIS1_EED2Ev@Base 1.4
 _ZNSt6vectorIN4CVC419DatatypeConstructorESaIS1_EED1Ev@Base 1.4
 _ZNSt6vectorIN4CVC419DatatypeConstructorESaIS1_EED2Ev@Base 1.4
 _ZNSt6vectorIN4CVC419DatatypeConstructorESaIS1_EEaSERKS3_@Base 1.4
 _ZNSt6vectorIN4CVC422DatatypeConstructorArgESaIS1_EEaSERKS3_@Base 1.4
 _ZNSt6vectorIN4CVC44ExprESaIS1_EE13_M_insert_auxEN9__gnu_cxx17__normal_iteratorIPS1_S3_EERKS1_@Base 1.4
 _ZNSt6vectorIN4CVC44ExprESaIS1_EE15_M_range_insertIN9__gnu_cxx17__normal_iteratorIPKS1_S3_EEEEvNS6_IPS1_S3_EET_SC_St20forward_iterator_tag@Base 1.4
 _ZNSt6vectorIN4CVC44ExprESaIS1_EE6insertINS1_14const_iteratorEEEvN9__gnu_cxx17__normal_iteratorIPS1_S3_EET_SA_@Base 1.4
 _ZNSt6vectorIN4CVC44ExprESaIS1_EE9push_backERKS1_@Base 1.4
 _ZNSt6vectorIN4CVC44ExprESaIS1_EED1Ev@Base 1.4
 _ZNSt6vectorIN4CVC44ExprESaIS1_EED2Ev@Base 1.4
 _ZNSt6vectorIN4CVC44ExprESaIS1_EEaSERKS3_@Base 1.4
 _ZNSt6vectorIN4CVC44TypeESaIS1_EE13_M_insert_auxEN9__gnu_cxx17__normal_iteratorIPS1_S3_EERKS1_@Base 1.4
 _ZNSt6vectorIN4CVC44TypeESaIS1_EE7reserveEm@Base 1.4
 _ZNSt6vectorIN4CVC44TypeESaIS1_EE9push_backERKS1_@Base 1.4
 _ZNSt6vectorIN4CVC44TypeESaIS1_EED1Ev@Base 1.4
 _ZNSt6vectorIN4CVC44TypeESaIS1_EED2Ev@Base 1.4
 _ZNSt6vectorIN4CVC44TypeESaIS1_EEaSERKS3_@Base 1.4
 _ZNSt6vectorIN4CVC45SExprESaIS1_EE13_M_insert_auxEN9__gnu_cxx17__normal_iteratorIPS1_S3_EERKS1_@Base 1.4
 _ZNSt6vectorIN4CVC45SExprESaIS1_EED1Ev@Base 1.4
 _ZNSt6vectorIN4CVC45SExprESaIS1_EED2Ev@Base 1.4
 _ZNSt6vectorIN4CVC45SExprESaIS1_EEaSERKS3_@Base 1.4
 _ZNSt6vectorIN4CVC48DatatypeESaIS1_EE13_M_insert_auxEN9__gnu_cxx17__normal_iteratorIPS1_S3_EERKS1_@Base 1.4
 _ZNSt6vectorIN4CVC48DatatypeESaIS1_EED1Ev@Base 1.4
 _ZNSt6vectorIN4CVC48DatatypeESaIS1_EED2Ev@Base 1.4
 _ZNSt6vectorIPN9__gnu_cxx15_Hashtable_nodeIN4CVC44ExprEEESaIS5_EE14_M_fill_insertENS0_17__normal_iteratorIPS5_S7_EEmRKS5_@Base 1.4
 _ZNSt6vectorIPN9__gnu_cxx15_Hashtable_nodeISsEESaIS3_EE14_M_fill_insertENS0_17__normal_iteratorIPS3_S5_EEmRKS3_@Base 1.4
 _ZNSt6vectorIPN9__gnu_cxx15_Hashtable_nodeISt4pairIKSsN4CVC44ExprEEEESaIS8_EE14_M_fill_insertENS0_17__normal_iteratorIPS8_SA_EEmRKS8_@Base 1.4
 _ZNSt6vectorIPN9__gnu_cxx15_Hashtable_nodeISt4pairIKSsN4CVC44kind6Kind_tEEEESaIS9_EE14_M_fill_insertENS0_17__normal_iteratorIPS9_SB_EEmRKS9_@Base 1.4
 _ZNSt6vectorIPN9__gnu_cxx15_Hashtable_nodeISt4pairIKSsN4CVC46parser4Smt15LogicEEEESaISA_EE14_M_fill_insertENS0_17__normal_iteratorIPSA_SC_EEmRKSA_@Base 1.4
 _ZNSt6vectorISsSaISsEE13_M_insert_auxEN9__gnu_cxx17__normal_iteratorIPSsS1_EERKSs@Base 1.4
 _ZNSt6vectorISsSaISsEE9push_backERKSs@Base 1.4
 _ZNSt6vectorISsSaISsEED1Ev@Base 1.4
 _ZNSt6vectorISsSaISsEED2Ev@Base 1.4
 _ZNSt6vectorISt4pairISsN4CVC44ExprEESaIS3_EE13_M_insert_auxEN9__gnu_cxx17__normal_iteratorIPS3_S5_EERKS3_@Base 1.4
 _ZNSt6vectorISt4pairISsN4CVC44ExprEESaIS3_EED1Ev@Base 1.4
 _ZNSt6vectorISt4pairISsN4CVC44ExprEESaIS3_EED2Ev@Base 1.4
 _ZNSt6vectorISt4pairISsN4CVC44TypeEESaIS3_EE13_M_insert_auxEN9__gnu_cxx17__normal_iteratorIPS3_S5_EERKS3_@Base 1.4
 _ZNSt6vectorISt4pairISsN4CVC44TypeEESaIS3_EE9push_backERKS3_@Base 1.4
 _ZNSt6vectorISt4pairISsN4CVC44TypeEESaIS3_EEC1ERKS5_@Base 1.4
 _ZNSt6vectorISt4pairISsN4CVC44TypeEESaIS3_EEC2ERKS5_@Base 1.4
 _ZNSt6vectorISt4pairISsN4CVC44TypeEESaIS3_EED1Ev@Base 1.4
 _ZNSt6vectorISt4pairISsN4CVC44TypeEESaIS3_EED2Ev@Base 1.4
 _ZNSt6vectorIjSaIjEE13_M_insert_auxEN9__gnu_cxx17__normal_iteratorIPjS1_EERKj@Base 1.4
 _ZNSt6vectorImSaImEE13_M_insert_auxEN9__gnu_cxx17__normal_iteratorIPmS1_EERKm@Base 1.4
 _ZNSt8_Rb_treeIN4CVC44ExprES1_St9_IdentityIS1_ESt4lessIS1_ESaIS1_EE11equal_rangeERKS1_@Base 1.4
 _ZNSt8_Rb_treeIN4CVC44ExprES1_St9_IdentityIS1_ESt4lessIS1_ESaIS1_EE16_M_insert_uniqueERKS1_@Base 1.4
 _ZNSt8_Rb_treeIN4CVC44ExprES1_St9_IdentityIS1_ESt4lessIS1_ESaIS1_EE8_M_eraseEPSt13_Rb_tree_nodeIS1_E@Base 1.4
 _ZNSt8_Rb_treeIN4CVC44TypeES1_St9_IdentityIS1_ESt4lessIS1_ESaIS1_EE16_M_insert_uniqueERKS1_@Base 1.4
 _ZNSt8_Rb_treeIN4CVC44TypeES1_St9_IdentityIS1_ESt4lessIS1_ESaIS1_EE8_M_eraseEPSt13_Rb_tree_nodeIS1_E@Base 1.4
 _ZNSt8_Rb_treeIN4CVC44kind6Kind_tES2_St9_IdentityIS2_ESt4lessIS2_ESaIS2_EE8_M_eraseEPSt13_Rb_tree_nodeIS2_E@Base 1.4
 _ZNSt8_Rb_treeISsSsSt9_IdentityISsESt4lessISsESaISsEE16_M_insert_uniqueERKSs@Base 1.4
 _ZNSt8_Rb_treeISsSsSt9_IdentityISsESt4lessISsESaISsEE4findERKSs@Base 1.4
 _ZNSt8_Rb_treeISsSsSt9_IdentityISsESt4lessISsESaISsEE8_M_eraseEPSt13_Rb_tree_nodeISsE@Base 1.4
 _ZNSt8_Rb_treeISt4pairIPKcmES3_St9_IdentityIS3_ESt4lessIS3_ESaIS3_EE16_M_insert_uniqueERKS3_@Base 1.4
 _ZStplIcSt11char_traitsIcESaIcEESbIT_T0_T1_EPKS3_RKS6_@Base 1.4
 _ZStplIcSt11char_traitsIcESaIcEESbIT_T0_T1_ERKS6_PKS3_@Base 1.4
 _ZStplIcSt11char_traitsIcESaIcEESbIT_T0_T1_ERKS6_S8_@Base 1.4
 _ZTIN4CVC410RecordTypeE@Base 1.4
 _ZTIN4CVC410StringTypeE@Base 1.4
 _ZTIN4CVC411BooleanTypeE@Base 1.4
 _ZTIN4CVC411IntegerTypeE@Base 1.4
 _ZTIN4CVC412DatatypeTypeE@Base 1.4
 _ZTIN4CVC412FunctionTypeE@Base 1.4
 _ZTIN4CVC413BitVectorTypeE@Base 1.4
 _ZTIN4CVC415ConstructorTypeE@Base 1.4
 _ZTIN4CVC419DeclarationSequenceE@Base 1.4
 _ZTIN4CVC419SortConstructorTypeE@Base 1.4
 _ZTIN4CVC424IllegalArgumentExceptionE@Base 1.4
 _ZTIN4CVC46parser11InputStreamE@Base 1.4
 _ZTIN4CVC46parser15ParserExceptionE@Base 1.4
 _ZTIN4CVC46parser20InputStreamExceptionE@Base 1.4
 _ZTIN4CVC46parser24ParserEndOfFileExceptionE@Base 1.4
 _ZTIN4CVC46parser5InputE@Base 1.4
 _ZTIN4CVC46parser6ParserE@Base 1.4
 _ZTIN4CVC47SetTypeE@Base 1.4
 _ZTIN4CVC48RealTypeE@Base 1.4
 _ZTIN4CVC48SortTypeE@Base 1.4
 _ZTIN4CVC49ArrayTypeE@Base 1.4
 _ZTIN4CVC49ExceptionE@Base 1.4
 _ZTIN4CVC49TupleTypeE@Base 1.4
 _ZTSN4CVC410RecordTypeE@Base 1.4
 _ZTSN4CVC410StringTypeE@Base 1.4
 _ZTSN4CVC411BooleanTypeE@Base 1.4
 _ZTSN4CVC411IntegerTypeE@Base 1.4
 _ZTSN4CVC412DatatypeTypeE@Base 1.4
 _ZTSN4CVC412FunctionTypeE@Base 1.4
 _ZTSN4CVC413BitVectorTypeE@Base 1.4
 _ZTSN4CVC415ConstructorTypeE@Base 1.4
 _ZTSN4CVC419DeclarationSequenceE@Base 1.4
 _ZTSN4CVC419SortConstructorTypeE@Base 1.4
 _ZTSN4CVC424IllegalArgumentExceptionE@Base 1.4
 _ZTSN4CVC46parser11InputStreamE@Base 1.4
 _ZTSN4CVC46parser15ParserExceptionE@Base 1.4
 _ZTSN4CVC46parser20InputStreamExceptionE@Base 1.4
 _ZTSN4CVC46parser24ParserEndOfFileExceptionE@Base 1.4
 _ZTSN4CVC46parser5InputE@Base 1.4
 _ZTSN4CVC46parser6ParserE@Base 1.4
 _ZTSN4CVC47SetTypeE@Base 1.4
 _ZTSN4CVC48RealTypeE@Base 1.4
 _ZTSN4CVC48SortTypeE@Base 1.4
 _ZTSN4CVC49ArrayTypeE@Base 1.4
 _ZTSN4CVC49ExceptionE@Base 1.4
 _ZTSN4CVC49TupleTypeE@Base 1.4
 _ZTVN4CVC410RecordTypeE@Base 1.4
 _ZTVN4CVC410StringTypeE@Base 1.4
 _ZTVN4CVC411BooleanTypeE@Base 1.4
 _ZTVN4CVC411IntegerTypeE@Base 1.4
 _ZTVN4CVC412DatatypeTypeE@Base 1.4
 _ZTVN4CVC412FunctionTypeE@Base 1.4
 _ZTVN4CVC413BitVectorTypeE@Base 1.4
 _ZTVN4CVC415ConstructorTypeE@Base 1.4
 _ZTVN4CVC419DeclarationSequenceE@Base 1.4
 _ZTVN4CVC419SortConstructorTypeE@Base 1.4
 _ZTVN4CVC424IllegalArgumentExceptionE@Base 1.4
 _ZTVN4CVC46parser11InputStreamE@Base 1.4
 _ZTVN4CVC46parser15ParserExceptionE@Base 1.4
 _ZTVN4CVC46parser20InputStreamExceptionE@Base 1.4
 _ZTVN4CVC46parser24ParserEndOfFileExceptionE@Base 1.4
 _ZTVN4CVC46parser5InputE@Base 1.4
 _ZTVN4CVC46parser6ParserE@Base 1.4
 _ZTVN4CVC47SetTypeE@Base 1.4
 _ZTVN4CVC48RealTypeE@Base 1.4
 _ZTVN4CVC48SortTypeE@Base 1.4
 _ZTVN4CVC49ArrayTypeE@Base 1.4
 _ZTVN4CVC49ExceptionE@Base 1.4
 _ZTVN4CVC49TupleTypeE@Base 1.4
