libcvc4compat.so.3 libcvc4compat2 #MINVER#
 _ZN19__gmp_alloc_cstringD1Ev@Base 1.4
 _ZN19__gmp_alloc_cstringD2Ev@Base 1.4
 _ZN4CVC310int2stringEi@Base 1.4
 _ZN4CVC311ExprManager11getKindNameEi@Base 1.4
 _ZN4CVC314isArrayLiteralERKNS_4ExprE@Base 1.4
 _ZN4CVC315ValidityChecker10bitvecTypeEi@Base 1.4
 _ZN4CVC315ValidityChecker10checkUnsatERKNS_4ExprE@Base 1.4
 _ZN4CVC315ValidityChecker10createTypeERKSs@Base 1.4
 _ZN4CVC315ValidityChecker10createTypeERKSsRKNS_4TypeE@Base 1.4
 _ZN4CVC315ValidityChecker10divideExprERKNS_4ExprES3_@Base 1.4
 _ZN4CVC315ValidityChecker10existsExprERKSt6vectorINS_4ExprESaIS2_EERKS2_@Base 1.4
 _ZN4CVC315ValidityChecker10forallExprERKSt6vectorINS_4ExprESaIS2_EERKS2_@Base 1.4
 _ZN4CVC315ValidityChecker10forallExprERKSt6vectorINS_4ExprESaIS2_EERKS2_RKS1_IS4_SaIS4_EE@Base 1.4
 _ZN4CVC315ValidityChecker10forallExprERKSt6vectorINS_4ExprESaIS2_EERKS2_S6_@Base 1.4
 _ZN4CVC315ValidityChecker10forallExprERKSt6vectorINS_4ExprESaIS2_EERKS2_S8_@Base 1.4
 _ZN4CVC315ValidityChecker10getClosureEv@Base 1.4
 _ZN4CVC315ValidityChecker10importExprERKNS_4ExprE@Base 1.4
 _ZN4CVC315ValidityChecker10importTypeERKNS_4TypeE@Base 1.4
 _ZN4CVC315ValidityChecker10incompleteERSt6vectorISsSaISsEE@Base 1.4
 _ZN4CVC315ValidityChecker10incompleteEv@Base 1.4
 _ZN4CVC315ValidityChecker10lambdaExprERKSt6vectorINS_4ExprESaIS2_EERKS2_@Base 1.4
 _ZN4CVC315ValidityChecker10lookupTypeERKSs@Base 1.4
 _ZN4CVC315ValidityChecker10poptoScopeEi@Base 1.4
 _ZN4CVC315ValidityChecker10recordExprERKSsRKNS_4ExprE@Base 1.4
 _ZN4CVC315ValidityChecker10recordExprERKSsRKNS_4ExprES2_S5_@Base 1.4
 _ZN4CVC315ValidityChecker10recordExprERKSsRKNS_4ExprES2_S5_S2_S5_@Base 1.4
 _ZN4CVC315ValidityChecker10recordExprERKSt6vectorISsSaISsEERKS1_INS_4ExprESaIS6_EE@Base 1.4
 _ZN4CVC315ValidityChecker10recordTypeERKSsRKNS_4TypeE@Base 1.4
 _ZN4CVC315ValidityChecker10recordTypeERKSsRKNS_4TypeES2_S5_@Base 1.4
 _ZN4CVC315ValidityChecker10recordTypeERKSsRKNS_4TypeES2_S5_S2_S5_@Base 1.4
 _ZN4CVC315ValidityChecker10recordTypeERKSt6vectorISsSaISsEERKS1_INS_4TypeESaIS6_EE@Base 1.4
 _ZN4CVC315ValidityChecker10scopeLevelEv@Base 1.4
 _ZN4CVC315ValidityChecker10setTriggerERKNS_4ExprES3_@Base 1.4
 _ZN4CVC315ValidityChecker10stackLevelEv@Base 1.4
 _ZN4CVC315ValidityChecker10stringExprERKSs@Base 1.4
 _ZN4CVC315ValidityChecker10uminusExprERKNS_4ExprE@Base 1.4
 _ZN4CVC315ValidityChecker11createFlagsEv@Base 1.4
 _ZN4CVC315ValidityChecker11getBaseTypeERKNS_4ExprE@Base 1.4
 _ZN4CVC315ValidityChecker11getBaseTypeERKNS_4TypeE@Base 1.4
 _ZN4CVC315ValidityChecker11getProofTCCEv@Base 1.4
 _ZN4CVC315ValidityChecker11getTypePredERKNS_4TypeERKNS_4ExprE@Base 1.4
 _ZN4CVC315ValidityChecker11impliesExprERKNS_4ExprES3_@Base 1.4
 _ZN4CVC315ValidityChecker11newBVLEExprERKNS_4ExprES3_@Base 1.4
 _ZN4CVC315ValidityChecker11newBVLTExprERKNS_4ExprES3_@Base 1.4
 _ZN4CVC315ValidityChecker11newBVOrExprERKNS_4ExprES3_@Base 1.4
 _ZN4CVC315ValidityChecker11newBVOrExprERKSt6vectorINS_4ExprESaIS2_EE@Base 1.4
 _ZN4CVC315ValidityChecker11setTriggersERKNS_4ExprERKSt6vectorIS1_SaIS1_EE@Base 1.4
 _ZN4CVC315ValidityChecker11setTriggersERKNS_4ExprERKSt6vectorIS4_IS1_SaIS1_EESaIS6_EE@Base 1.4
 _ZN4CVC315ValidityChecker11subtypeTypeERKNS_4ExprES3_@Base 1.4
 _ZN4CVC315ValidityChecker12boundVarExprERKSsS2_RKNS_4TypeE@Base 1.4
 _ZN4CVC315ValidityChecker12distinctExprERKSt6vectorINS_4ExprESaIS2_EE@Base 1.4
 _ZN4CVC315ValidityChecker12inconsistentERSt6vectorINS_4ExprESaIS2_EE@Base 1.4
 _ZN4CVC315ValidityChecker12inconsistentEv@Base 1.4
 _ZN4CVC315ValidityChecker12newBVAndExprERKNS_4ExprES3_@Base 1.4
 _ZN4CVC315ValidityChecker12newBVAndExprERKSt6vectorINS_4ExprESaIS2_EE@Base 1.4
 _ZN4CVC315ValidityChecker12newBVNegExprERKNS_4ExprE@Base 1.4
 _ZN4CVC315ValidityChecker12newBVNorExprERKNS_4ExprES3_@Base 1.4
 _ZN4CVC315ValidityChecker12newBVSLEExprERKNS_4ExprES3_@Base 1.4
 _ZN4CVC315ValidityChecker12newBVSLTExprERKNS_4ExprES3_@Base 1.4
 _ZN4CVC315ValidityChecker12newBVSubExprERKNS_4ExprES3_@Base 1.4
 _ZN4CVC315ValidityChecker12newBVXorExprERKNS_4ExprES3_@Base 1.4
 _ZN4CVC315ValidityChecker12newBVXorExprERKSt6vectorINS_4ExprESaIS2_EE@Base 1.4
 _ZN4CVC315ValidityChecker12registerAtomERKNS_4ExprE@Base 1.4
 _ZN4CVC315ValidityChecker12setTimeLimitEj@Base 1.4
 _ZN4CVC315ValidityChecker12setUpOptionsERN4CVC47OptionsERKNS_7CLFlagsE@Base 1.4
 _ZN4CVC315ValidityChecker12simulateExprERKNS_4ExprES3_RKSt6vectorIS1_SaIS1_EES3_@Base 1.4
 _ZN4CVC315ValidityChecker12subrangeTypeERKNS_4ExprES3_@Base 1.4
 _ZN4CVC315ValidityChecker12transClosureERKNS_4ExprE@Base 1.4
 _ZN4CVC315ValidityChecker13assertFormulaERKNS_4ExprE@Base 1.4
 _ZN4CVC315ValidityChecker13checkContinueEv@Base 1.4
 _ZN4CVC315ValidityChecker13getProofQueryEv@Base 1.4
 _ZN4CVC315ValidityChecker13getStatisticsEv@Base 1.4
 _ZN4CVC315ValidityChecker13logAnnotationERKNS_4ExprE@Base 1.4
 _ZN4CVC315ValidityChecker13newBVCompExprERKNS_4ExprES3_@Base 1.4
 _ZN4CVC315ValidityChecker13newBVMultExprEiRKNS_4ExprES3_@Base 1.4
 _ZN4CVC315ValidityChecker13newBVNandExprERKNS_4ExprES3_@Base 1.4
 _ZN4CVC315ValidityChecker13newBVPlusExprEiRKNS_4ExprES3_@Base 1.4
 _ZN4CVC315ValidityChecker13newBVPlusExprEiRKSt6vectorINS_4ExprESaIS2_EE@Base 1.4
 _ZN4CVC315ValidityChecker13newBVSDivExprERKNS_4ExprES3_@Base 1.4
 _ZN4CVC315ValidityChecker13newBVSModExprERKNS_4ExprES3_@Base 1.4
 _ZN4CVC315ValidityChecker13newBVSRemExprERKNS_4ExprES3_@Base 1.4
 _ZN4CVC315ValidityChecker13newBVUDivExprERKNS_4ExprES3_@Base 1.4
 _ZN4CVC315ValidityChecker13newBVURemExprERKNS_4ExprES3_@Base 1.4
 _ZN4CVC315ValidityChecker13newBVXnorExprERKNS_4ExprES3_@Base 1.4
 _ZN4CVC315ValidityChecker13newBVXnorExprERKSt6vectorINS_4ExprESaIS2_EE@Base 1.4
 _ZN4CVC315ValidityChecker13newConcatExprERKNS_4ExprES3_@Base 1.4
 _ZN4CVC315ValidityChecker13newConcatExprERKSt6vectorINS_4ExprESaIS2_EE@Base 1.4
 _ZN4CVC315ValidityChecker13recSelectExprERKNS_4ExprERKSs@Base 1.4
 _ZN4CVC315ValidityChecker13recUpdateExprERKNS_4ExprERKSsS3_@Base 1.4
 _ZN4CVC315ValidityChecker14cmdsFromStringERKSsN4CVC48language5input8LanguageE@Base 1.4
 _ZN4CVC315ValidityChecker14computeBVConstERKNS_4ExprE@Base 1.4
 _ZN4CVC315ValidityChecker14exprFromStringERKSsN4CVC48language5input8LanguageE@Base 1.4
 _ZN4CVC315ValidityChecker14getAssumptionsERSt6vectorINS_4ExprESaIS2_EE@Base 1.4
 _ZN4CVC315ValidityChecker14newBVConstExprERKN4CVC48RationalEi@Base 1.4
 _ZN4CVC315ValidityChecker14newBVConstExprERKSsi@Base 1.4
 _ZN4CVC315ValidityChecker14newBVConstExprERKSt6vectorIbSaIbEE@Base 1.4
 _ZN4CVC315ValidityChecker14reprocessFlagsEv@Base 1.4
 _ZN4CVC315ValidityChecker15datatypeSelExprERKSsRKNS_4ExprE@Base 1.4
 _ZN4CVC315ValidityChecker15getProofClosureEv@Base 1.4
 _ZN4CVC315ValidityChecker15newBVUminusExprERKNS_4ExprE@Base 1.4
 _ZN4CVC315ValidityChecker15printStatisticsEv@Base 1.4
 _ZN4CVC315ValidityChecker15returnFromCheckEv@Base 1.4
 _ZN4CVC315ValidityChecker15setMultiTriggerERKNS_4ExprERKSt6vectorIS1_SaIS1_EE@Base 1.4
 _ZN4CVC315ValidityChecker15tupleSelectExprERKNS_4ExprEi@Base 1.4
 _ZN4CVC315ValidityChecker15tupleUpdateExprERKNS_4ExprEiS3_@Base 1.4
 _ZN4CVC315ValidityChecker16datatypeConsExprERKSsRKSt6vectorINS_4ExprESaIS4_EE@Base 1.4
 _ZN4CVC315ValidityChecker16datatypeTestExprERKSsRKNS_4ExprE@Base 1.4
 _ZN4CVC315ValidityChecker16getConcreteModelERNS_7ExprMapINS_4ExprEEE@Base 1.4
 _ZN4CVC315ValidityChecker16newBVExtractExprERKNS_4ExprEii@Base 1.4
 _ZN4CVC315ValidityChecker16setResourceLimitEj@Base 1.4
 _ZN4CVC315ValidityChecker17getAssumptionsTCCERSt6vectorINS_4ExprESaIS2_EE@Base 1.4
 _ZN4CVC315ValidityChecker17getCounterExampleERSt6vectorINS_4ExprESaIS2_EEb@Base 1.4
 _ZN4CVC315ValidityChecker17getCurrentContextEv@Base 1.4
 _ZN4CVC315ValidityChecker17getImpliedLiteralEv@Base 1.4
 _ZN4CVC315ValidityChecker18getAssumptionsUsedERSt6vectorINS_4ExprESaIS2_EE@Base 1.4
 _ZN4CVC315ValidityChecker18getUserAssumptionsERSt6vectorINS_4ExprESaIS2_EE@Base 1.4
 _ZN4CVC315ValidityChecker18tryModelGenerationEv@Base 1.4
 _ZN4CVC315ValidityChecker19addPairToArithOrderERKNS_4ExprES3_@Base 1.4
 _ZN4CVC315ValidityChecker21newFixedLeftShiftExprERKNS_4ExprEi@Base 1.4
 _ZN4CVC315ValidityChecker22getInternalAssumptionsERSt6vectorINS_4ExprESaIS2_EE@Base 1.4
 _ZN4CVC315ValidityChecker22newFixedRightShiftExprERKNS_4ExprEi@Base 1.4
 _ZN4CVC315ValidityChecker31newFixedConstWidthLeftShiftExprERKNS_4ExprEi@Base 1.4
 _ZN4CVC315ValidityChecker3popEv@Base 1.4
 _ZN4CVC315ValidityChecker4pushEv@Base 1.4
 _ZN4CVC315ValidityChecker5bvpadEiRKNS_4ExprE@Base 1.4
 _ZN4CVC315ValidityChecker5getEMEv@Base 1.4
 _ZN4CVC315ValidityChecker5poptoEi@Base 1.4
 _ZN4CVC315ValidityChecker5queryERKNS_4ExprE@Base 1.4
 _ZN4CVC315ValidityChecker5resetEv@Base 1.4
 _ZN4CVC315ValidityChecker5valueERKNS_4ExprE@Base 1.4
 _ZN4CVC315ValidityChecker6createERKNS_7CLFlagsE@Base 1.4
 _ZN4CVC315ValidityChecker6createEv@Base 1.4
 _ZN4CVC315ValidityChecker6eqExprERKNS_4ExprES3_@Base 1.4
 _ZN4CVC315ValidityChecker6geExprERKNS_4ExprES3_@Base 1.4
 _ZN4CVC315ValidityChecker6getTCCEv@Base 1.4
 _ZN4CVC315ValidityChecker6gtExprERKNS_4ExprES3_@Base 1.4
 _ZN4CVC315ValidityChecker6idExprERKSs@Base 1.4
 _ZN4CVC315ValidityChecker6leExprERKNS_4ExprES3_@Base 1.4
 _ZN4CVC315ValidityChecker6ltExprERKNS_4ExprES3_@Base 1.4
 _ZN4CVC315ValidityChecker6orExprERKNS_4ExprES3_@Base 1.4
 _ZN4CVC315ValidityChecker6orExprERKSt6vectorINS_4ExprESaIS2_EE@Base 1.4
 _ZN4CVC315ValidityChecker7andExprERKNS_4ExprES3_@Base 1.4
 _ZN4CVC315ValidityChecker7andExprERKSt6vectorINS_4ExprESaIS2_EE@Base 1.4
 _ZN4CVC315ValidityChecker7funExprERKNS_4ExprERKSt6vectorIS1_SaIS1_EE@Base 1.4
 _ZN4CVC315ValidityChecker7funExprERKNS_4ExprES3_@Base 1.4
 _ZN4CVC315ValidityChecker7funExprERKNS_4ExprES3_S3_@Base 1.4
 _ZN4CVC315ValidityChecker7funExprERKNS_4ExprES3_S3_S3_@Base 1.4
 _ZN4CVC315ValidityChecker7funTypeERKNS_4TypeES3_@Base 1.4
 _ZN4CVC315ValidityChecker7funTypeERKSt6vectorINS_4TypeESaIS2_EERKS2_@Base 1.4
 _ZN4CVC315ValidityChecker7getTypeERKNS_4ExprE@Base 1.4
 _ZN4CVC315ValidityChecker7iffExprERKNS_4ExprES3_@Base 1.4
 _ZN4CVC315ValidityChecker7intTypeEv@Base 1.4
 _ZN4CVC315ValidityChecker7iteExprERKNS_4ExprES3_S3_@Base 1.4
 _ZN4CVC315ValidityChecker7notExprERKNS_4ExprE@Base 1.4
 _ZN4CVC315ValidityChecker7powExprERKNS_4ExprES3_@Base 1.4
 _ZN4CVC315ValidityChecker7ratExprERKSsS2_i@Base 1.4
 _ZN4CVC315ValidityChecker7ratExprERKSsi@Base 1.4
 _ZN4CVC315ValidityChecker7ratExprEii@Base 1.4
 _ZN4CVC315ValidityChecker7restartERKNS_4ExprE@Base 1.4
 _ZN4CVC315ValidityChecker7varExprERKSsRKNS_4TypeE@Base 1.4
 _ZN4CVC315ValidityChecker7varExprERKSsRKNS_4TypeERKNS_4ExprE@Base 1.4
 _ZN4CVC315ValidityChecker8boolTypeEv@Base 1.4
 _ZN4CVC315ValidityChecker8createOpERKSsRKNS_4TypeE@Base 1.4
 _ZN4CVC315ValidityChecker8createOpERKSsRKNS_4TypeERKNS_4ExprE@Base 1.4
 _ZN4CVC315ValidityChecker8dataTypeERKSsRKSt6vectorISsSaISsEERKS3_IS5_SaIS5_EERKS3_IS3_INS_4ExprESaISC_EESaISE_EE@Base 1.4
 _ZN4CVC315ValidityChecker8dataTypeERKSsS2_RKSt6vectorISsSaISsEERKS3_INS_4ExprESaIS8_EE@Base 1.4
 _ZN4CVC315ValidityChecker8dataTypeERKSt6vectorISsSaISsEERKS1_IS3_SaIS3_EERKS1_IS7_SaIS7_EERKS1_IS1_IS1_INS_4ExprESaISE_EESaISG_EESaISI_EERS1_INS_4TypeESaISN_EE@Base 1.4
 _ZN4CVC315ValidityChecker8getProofEv@Base 1.4
 _ZN4CVC315ValidityChecker8getValueERKNS_4ExprE@Base 1.4
 _ZN4CVC315ValidityChecker8listExprERKNS_4ExprE@Base 1.4
 _ZN4CVC315ValidityChecker8listExprERKNS_4ExprES3_@Base 1.4
 _ZN4CVC315ValidityChecker8listExprERKNS_4ExprES3_S3_@Base 1.4
 _ZN4CVC315ValidityChecker8listExprERKSsRKNS_4ExprE@Base 1.4
 _ZN4CVC315ValidityChecker8listExprERKSsRKNS_4ExprES5_@Base 1.4
 _ZN4CVC315ValidityChecker8listExprERKSsRKNS_4ExprES5_S5_@Base 1.4
 _ZN4CVC315ValidityChecker8listExprERKSsRKSt6vectorINS_4ExprESaIS4_EE@Base 1.4
 _ZN4CVC315ValidityChecker8listExprERKSt6vectorINS_4ExprESaIS2_EE@Base 1.4
 _ZN4CVC315ValidityChecker8loadFileERKSsN4CVC48language5input8LanguageEbb@Base 1.4
 _ZN4CVC315ValidityChecker8loadFileERSiN4CVC48language5input8LanguageEb@Base 1.4
 _ZN4CVC315ValidityChecker8lookupOpERKSsPNS_4TypeE@Base 1.4
 _ZN4CVC315ValidityChecker8multExprERKNS_4ExprES3_@Base 1.4
 _ZN4CVC315ValidityChecker8newBVSHLERKNS_4ExprES3_@Base 1.4
 _ZN4CVC315ValidityChecker8plusExprERKNS_4ExprES3_@Base 1.4
 _ZN4CVC315ValidityChecker8plusExprERKSt6vectorINS_4ExprESaIS2_EE@Base 1.4
 _ZN4CVC315ValidityChecker8popScopeEv@Base 1.4
 _ZN4CVC315ValidityChecker8readExprERKNS_4ExprES3_@Base 1.4
 _ZN4CVC315ValidityChecker8realTypeEv@Base 1.4
 _ZN4CVC315ValidityChecker8simplifyERKNS_4ExprE@Base 1.4
 _ZN4CVC315ValidityChecker8trueExprEv@Base 1.4
 _ZN4CVC315ValidityChecker9arrayTypeERKNS_4TypeES3_@Base 1.4
 _ZN4CVC315ValidityChecker9falseExprEv@Base 1.4
 _ZN4CVC315ValidityChecker9lookupVarERKSsPNS_4TypeE@Base 1.4
 _ZN4CVC315ValidityChecker9minusExprERKNS_4ExprES3_@Base 1.4
 _ZN4CVC315ValidityChecker9newBVASHRERKNS_4ExprES3_@Base 1.4
 _ZN4CVC315ValidityChecker9newBVLSHRERKNS_4ExprES3_@Base 1.4
 _ZN4CVC315ValidityChecker9newSXExprERKNS_4ExprEi@Base 1.4
 _ZN4CVC315ValidityChecker9parseExprERKNS_4ExprE@Base 1.4
 _ZN4CVC315ValidityChecker9parseTypeERKNS_4ExprE@Base 1.4
 _ZN4CVC315ValidityChecker9printExprERKNS_4ExprE@Base 1.4
 _ZN4CVC315ValidityChecker9printExprERKNS_4ExprERSo@Base 1.4
 _ZN4CVC315ValidityChecker9pushScopeEv@Base 1.4
 _ZN4CVC315ValidityChecker9tupleExprERKSt6vectorINS_4ExprESaIS2_EE@Base 1.4
 _ZN4CVC315ValidityChecker9tupleTypeERKNS_4TypeES3_@Base 1.4
 _ZN4CVC315ValidityChecker9tupleTypeERKNS_4TypeES3_S3_@Base 1.4
 _ZN4CVC315ValidityChecker9tupleTypeERKSt6vectorINS_4TypeESaIS2_EE@Base 1.4
 _ZN4CVC315ValidityChecker9writeExprERKNS_4ExprES3_S3_@Base 1.4
 _ZN4CVC315ValidityCheckerC1ERKNS_7CLFlagsE@Base 1.4
 _ZN4CVC315ValidityCheckerC1Ev@Base 1.4
 _ZN4CVC315ValidityCheckerC2ERKNS_7CLFlagsE@Base 1.4
 _ZN4CVC315ValidityCheckerC2Ev@Base 1.4
 _ZN4CVC315ValidityCheckerD0Ev@Base 1.4
 _ZN4CVC315ValidityCheckerD1Ev@Base 1.4
 _ZN4CVC315ValidityCheckerD2Ev@Base 1.4
 _ZN4CVC319QueryResultToStringENS_11QueryResultE@Base 1.4
 _ZN4CVC34Expr4hashERKS0_@Base 1.4
 _ZN4CVC34ExprC1EN4CVC44kind6Kind_tE@Base 1.4
 _ZN4CVC34ExprC1ERKN4CVC44ExprE@Base 1.4
 _ZN4CVC34ExprC1ERKS0_@Base 1.4
 _ZN4CVC34ExprC1Ev@Base 1.4
 _ZN4CVC34ExprC2EN4CVC44kind6Kind_tE@Base 1.4
 _ZN4CVC34ExprC2ERKN4CVC44ExprE@Base 1.4
 _ZN4CVC34ExprC2ERKS0_@Base 1.4
 _ZN4CVC34ExprC2Ev@Base 1.4
 _ZN4CVC34Type7funTypeERKSt6vectorIS0_SaIS0_EERKS0_@Base 1.4
 _ZN4CVC34Type8typeBoolEPNS_11ExprManagerE@Base 1.4
 _ZN4CVC34TypeC1ERKN4CVC44TypeE@Base 1.4
 _ZN4CVC34TypeC1ERKS0_@Base 1.4
 _ZN4CVC34TypeC1Ev@Base 1.4
 _ZN4CVC34TypeC2ERKN4CVC44TypeE@Base 1.4
 _ZN4CVC34TypeC2ERKS0_@Base 1.4
 _ZN4CVC34TypeC2Ev@Base 1.4
 _ZN4CVC34TypeD0Ev@Base 1.4
 _ZN4CVC34TypeD1Ev@Base 1.4
 _ZN4CVC34TypeD2Ev@Base 1.4
 _ZN4CVC36CLFlagC1EPKcRKSsb@Base 1.4
 _ZN4CVC36CLFlagC1ERKS0_@Base 1.4
 _ZN4CVC36CLFlagC1ERKSsS2_b@Base 1.4
 _ZN4CVC36CLFlagC1ERKSt6vectorISt4pairISsbESaIS3_EERKSsb@Base 1.4
 _ZN4CVC36CLFlagC1EbRKSsb@Base 1.4
 _ZN4CVC36CLFlagC1EiRKSsb@Base 1.4
 _ZN4CVC36CLFlagC1Ev@Base 1.4
 _ZN4CVC36CLFlagC2EPKcRKSsb@Base 1.4
 _ZN4CVC36CLFlagC2ERKS0_@Base 1.4
 _ZN4CVC36CLFlagC2ERKSsS2_b@Base 1.4
 _ZN4CVC36CLFlagC2ERKSt6vectorISt4pairISsbESaIS3_EERKSsb@Base 1.4
 _ZN4CVC36CLFlagC2EbRKSsb@Base 1.4
 _ZN4CVC36CLFlagC2EiRKSsb@Base 1.4
 _ZN4CVC36CLFlagC2Ev@Base 1.4
 _ZN4CVC36CLFlagD1Ev@Base 1.4
 _ZN4CVC36CLFlagD2Ev@Base 1.4
 _ZN4CVC36CLFlagaSEPKc@Base 1.4
 _ZN4CVC36CLFlagaSERKS0_@Base 1.4
 _ZN4CVC36CLFlagaSERKSs@Base 1.4
 _ZN4CVC36CLFlagaSERKSt4pairISsbE@Base 1.4
 _ZN4CVC36CLFlagaSERKSt6vectorISt4pairISsbESaIS3_EE@Base 1.4
 _ZN4CVC36CLFlagaSEb@Base 1.4
 _ZN4CVC36CLFlagaSEi@Base 1.4
 _ZN4CVC37CLFlags7addFlagERKSsRKNS_6CLFlagE@Base 1.4
 _ZN4CVC37CLFlags7setFlagERKSsPKc@Base 1.4
 _ZN4CVC37CLFlags7setFlagERKSsRKNS_6CLFlagE@Base 1.4
 _ZN4CVC37CLFlags7setFlagERKSsRKSt4pairISsbE@Base 1.4
 _ZN4CVC37CLFlags7setFlagERKSsRKSt6vectorISt4pairISsbESaIS5_EE@Base 1.4
 _ZN4CVC37CLFlags7setFlagERKSsS2_@Base 1.4
 _ZN4CVC37CLFlags7setFlagERKSsb@Base 1.4
 _ZN4CVC37CLFlags7setFlagERKSsi@Base 1.4
 _ZN4CVC37compareERKNS_4ExprES2_@Base 1.4
 _ZN4CVC3eqENS_19CVC3CardinalityKindERKN4CVC411CardinalityE@Base 1.4
 _ZN4CVC3eqERKN4CVC411CardinalityENS_19CVC3CardinalityKindE@Base 1.4
 _ZN4CVC3lsERSoNS_10CLFlagTypeE@Base 1.4
 _ZN4CVC3lsERSoNS_11QueryResultE@Base 1.4
 _ZN4CVC3lsERSoNS_12FormulaValueE@Base 1.4
 _ZN4CVC3lsERSoNS_19CVC3CardinalityKindE@Base 1.4
 _ZN4CVC3neENS_19CVC3CardinalityKindERKN4CVC411CardinalityE@Base 1.4
 _ZN4CVC3neERKN4CVC411CardinalityENS_19CVC3CardinalityKindE@Base 1.4
 _ZN4CVC410RecordTypeD0Ev@Base 1.4
 _ZN4CVC410RecordTypeD1Ev@Base 1.4
 _ZN4CVC410RecordTypeD2Ev@Base 1.4
 _ZN4CVC411BooleanTypeD0Ev@Base 1.4
 _ZN4CVC411BooleanTypeD1Ev@Base 1.4
 _ZN4CVC411BooleanTypeD2Ev@Base 1.4
 _ZN4CVC411IntegerTypeD0Ev@Base 1.4
 _ZN4CVC411IntegerTypeD1Ev@Base 1.4
 _ZN4CVC411IntegerTypeD2Ev@Base 1.4
 _ZN4CVC412FunctionTypeD0Ev@Base 1.4
 _ZN4CVC412FunctionTypeD1Ev@Base 1.4
 _ZN4CVC412FunctionTypeD2Ev@Base 1.4
 _ZN4CVC413BitVectorTypeD0Ev@Base 1.4
 _ZN4CVC413BitVectorTypeD1Ev@Base 1.4
 _ZN4CVC413BitVectorTypeD2Ev@Base 1.4
 _ZN4CVC413CheckArgumentIN4CVC34ExprEEEvbRKT_PKcz@Base 1.4
 _ZN4CVC413CheckArgumentISt6vectorIN4CVC34ExprESaIS3_EEEEvbRKT_PKcz@Base 1.4
 _ZN4CVC413SubrangeBoundD1Ev@Base 1.4
 _ZN4CVC413SubrangeBoundD2Ev@Base 1.4
 _ZN4CVC415VariableTypeMapD1Ev@Base 1.4
 _ZN4CVC415VariableTypeMapD2Ev@Base 1.4
 _ZN4CVC419DatatypeConstructorD1Ev@Base 1.4
 _ZN4CVC419DatatypeConstructorD2Ev@Base 1.4
 _ZN4CVC422DatatypeConstructorArgD1Ev@Base 1.4
 _ZN4CVC422DatatypeConstructorArgD2Ev@Base 1.4
 _ZN4CVC424ExprManagerMapCollectionD1Ev@Base 1.4
 _ZN4CVC424ExprManagerMapCollectionD2Ev@Base 1.4
 _ZN4CVC424IllegalArgumentExceptionC1EPKcS2_S2_@Base 1.4
 _ZN4CVC424IllegalArgumentExceptionC2EPKcS2_S2_@Base 1.4
 _ZN4CVC424IllegalArgumentExceptionD0Ev@Base 1.4
 _ZN4CVC424IllegalArgumentExceptionD1Ev@Base 1.4
 _ZN4CVC424IllegalArgumentExceptionD2Ev@Base 1.4
 _ZN4CVC44kind12kindToStringENS0_6Kind_tE@Base 1.4
 _ZN4CVC44kindlsERSoNS0_6Kind_tE@Base 1.4
 _ZN4CVC45SExprC1ERKSs@Base 1.4
 _ZN4CVC45SExprC2ERKSs@Base 1.4
 _ZN4CVC45SExprD1Ev@Base 1.4
 _ZN4CVC45SExprD2Ev@Base 1.4
 _ZN4CVC46parser13ParserBuilderD1Ev@Base 1.4
 _ZN4CVC46parser13ParserBuilderD2Ev@Base 1.4
 _ZN4CVC46parser15ParserExceptionD0Ev@Base 1.4
 _ZN4CVC46parser15ParserExceptionD1Ev@Base 1.4
 _ZN4CVC46parser15ParserExceptionD2Ev@Base 1.4
 _ZN4CVC46parser6Parser10logicIsSetEv@Base 1.4
 _ZN4CVC46parser6ParserD0Ev@Base 1.4
 _ZN4CVC46parser6ParserD1Ev@Base 1.4
 _ZN4CVC46parser6ParserD2Ev@Base 1.4
 _ZN4CVC48DatatypeC1ERKS0_@Base 1.4
 _ZN4CVC48DatatypeC2ERKS0_@Base 1.4
 _ZN4CVC48DatatypeD1Ev@Base 1.4
 _ZN4CVC48DatatypeD2Ev@Base 1.4
 _ZN4CVC48RealTypeD0Ev@Base 1.4
 _ZN4CVC48RealTypeD1Ev@Base 1.4
 _ZN4CVC48RealTypeD2Ev@Base 1.4
 _ZN4CVC48SortTypeD0Ev@Base 1.4
 _ZN4CVC48SortTypeD1Ev@Base 1.4
 _ZN4CVC48SortTypeD2Ev@Base 1.4
 _ZN4CVC48language5inputlsERSoNS1_8LanguageE@Base 1.4
 _ZN4CVC49ArrayTypeD0Ev@Base 1.4
 _ZN4CVC49ArrayTypeD1Ev@Base 1.4
 _ZN4CVC49ArrayTypeD2Ev@Base 1.4
 _ZN4CVC49ExceptionC1ERKSs@Base 1.4
 _ZN4CVC49ExceptionC2ERKSs@Base 1.4
 _ZN4CVC49ExceptionD0Ev@Base 1.4
 _ZN4CVC49ExceptionD1Ev@Base 1.4
 _ZN4CVC49ExceptionD2Ev@Base 1.4
 _ZN4CVC49TupleTypeD0Ev@Base 1.4
 _ZN4CVC49TupleTypeD1Ev@Base 1.4
 _ZN4CVC49TupleTypeD2Ev@Base 1.4
 _ZN9__gnu_cxx21_Hashtable_prime_listImE16__stl_prime_listE@Base 1.4
 _ZN9__gnu_cxx8hash_mapIN4CVC34ExprENS1_4TypeEN4CVC416ExprHashFunctionESt8equal_toIS2_ESaIS3_EED1Ev@Base 1.4
 _ZN9__gnu_cxx8hash_mapIN4CVC34ExprENS1_4TypeEN4CVC416ExprHashFunctionESt8equal_toIS2_ESaIS3_EED2Ev@Base 1.4
 _ZN9__gnu_cxx8hash_mapIN4CVC34TypeENS1_4ExprEN4CVC416TypeHashFunctionESt8equal_toIS2_ESaIS3_EED1Ev@Base 1.4
 _ZN9__gnu_cxx8hash_mapIN4CVC34TypeENS1_4ExprEN4CVC416TypeHashFunctionESt8equal_toIS2_ESaIS3_EED2Ev@Base 1.4
 _ZN9__gnu_cxx9hashtableISt4pairIKN4CVC34ExprENS2_4TypeEES3_N4CVC416ExprHashFunctionESt10_Select1stIS6_ESt8equal_toIS3_ESaIS5_EE14find_or_insertERKS6_@Base 1.4
 _ZN9__gnu_cxx9hashtableISt4pairIKN4CVC34ExprENS2_4TypeEES3_N4CVC416ExprHashFunctionESt10_Select1stIS6_ESt8equal_toIS3_ESaIS5_EE6resizeEm@Base 1.4
 _ZN9__gnu_cxx9hashtableISt4pairIKN4CVC34TypeENS2_4ExprEES3_N4CVC416TypeHashFunctionESt10_Select1stIS6_ESt8equal_toIS3_ESaIS5_EE14find_or_insertERKS6_@Base 1.4
 _ZN9__gnu_cxx9hashtableISt4pairIKN4CVC34TypeENS2_4ExprEES3_N4CVC416TypeHashFunctionESt10_Select1stIS6_ESt8equal_toIS3_ESaIS5_EE6resizeEm@Base 1.4
 _ZN9__gnu_cxx9hashtableISt4pairIKN4CVC44ExprES3_ES3_NS2_16ExprHashFunctionESt10_Select1stIS5_ESt8equal_toIS3_ESaIS3_EE12_M_copy_fromERKSC_@Base 1.4
 _ZN9__gnu_cxx9hashtableISt4pairIKN4CVC44ExprES3_ES3_NS2_16ExprHashFunctionESt10_Select1stIS5_ESt8equal_toIS3_ESaIS3_EED1Ev@Base 1.4
 _ZN9__gnu_cxx9hashtableISt4pairIKN4CVC44ExprES3_ES3_NS2_16ExprHashFunctionESt10_Select1stIS5_ESt8equal_toIS3_ESaIS3_EED2Ev@Base 1.4
 _ZN9__gnu_cxx9hashtableISt4pairIKN4CVC44TypeES3_ES3_NS2_16TypeHashFunctionESt10_Select1stIS5_ESt8equal_toIS3_ESaIS3_EE12_M_copy_fromERKSC_@Base 1.4
 _ZN9__gnu_cxx9hashtableISt4pairIKSsPKN4CVC48DatatypeEESsNS3_18StringHashFunctionESt10_Select1stIS7_ESt8equal_toISsESaIS6_EE14find_or_insertERKS7_@Base 1.4
 _ZN9__gnu_cxx9hashtableISt4pairIKSsPKN4CVC48DatatypeEESsNS3_18StringHashFunctionESt10_Select1stIS7_ESt8equal_toISsESaIS6_EE6resizeEm@Base 1.4
 _ZN9__gnu_cxx9hashtableISt4pairIKSsPKN4CVC48DatatypeEESsNS3_18StringHashFunctionESt10_Select1stIS7_ESt8equal_toISsESaIS6_EED1Ev@Base 1.4
 _ZN9__gnu_cxx9hashtableISt4pairIKSsPKN4CVC48DatatypeEESsNS3_18StringHashFunctionESt10_Select1stIS7_ESt8equal_toISsESaIS6_EED2Ev@Base 1.4
 _ZN9__gnu_cxx9hashtableISt4pairIKSsS1_IPKN4CVC48DatatypeESsEESsNS3_18StringHashFunctionESt10_Select1stIS8_ESt8equal_toISsESaIS7_EE14find_or_insertERKS8_@Base 1.4
 _ZN9__gnu_cxx9hashtableISt4pairIKSsS1_IPKN4CVC48DatatypeESsEESsNS3_18StringHashFunctionESt10_Select1stIS8_ESt8equal_toISsESaIS7_EE6resizeEm@Base 1.4
 _ZN9__gnu_cxx9hashtableISt4pairIKSsS1_IPKN4CVC48DatatypeESsEESsNS3_18StringHashFunctionESt10_Select1stIS8_ESt8equal_toISsESaIS7_EED1Ev@Base 1.4
 _ZN9__gnu_cxx9hashtableISt4pairIKSsS1_IPKN4CVC48DatatypeESsEESsNS3_18StringHashFunctionESt10_Select1stIS8_ESt8equal_toISsESaIS7_EED2Ev@Base 1.4
 _ZN9__gnu_cxx9hashtableISt4pairIKmmEmNS_4hashImEESt10_Select1stIS3_ESt8equal_toImESaImEE12_M_copy_fromERKSB_@Base 1.4
 _ZN9__gnu_cxx9hashtableISt4pairIKmmEmNS_4hashImEESt10_Select1stIS3_ESt8equal_toImESaImEED1Ev@Base 1.4
 _ZN9__gnu_cxx9hashtableISt4pairIKmmEmNS_4hashImEESt10_Select1stIS3_ESt8equal_toImESaImEED2Ev@Base 1.4
 _ZNK4CVC311ExprManager12getInputLangEv@Base 1.4
 _ZNK4CVC311ExprManager13getOutputLangEv@Base 1.4
 _ZNK4CVC315ValidityChecker8getFlagsEv@Base 1.4
 _ZNK4CVC34Expr10getTheoremEv@Base 1.4
 _ZNK4CVC34Expr10isBoundVarEv@Base 1.4
 _ZNK4CVC34Expr10isConstantEv@Base 1.4
 _ZNK4CVC34Expr10isPropAtomEv@Base 1.4
 _ZNK4CVC34Expr10isRationalEv@Base 1.4
 _ZNK4CVC34Expr10lookupTypeEv@Base 1.4
 _ZNK4CVC34Expr11getRationalEv@Base 1.4
 _ZNK4CVC34Expr11getTriggersEv@Base 1.4
 _ZNK4CVC34Expr11isBoolConstEv@Base 1.4
 _ZNK4CVC34Expr11pprintnodagEv@Base 1.4
 _ZNK4CVC34Expr12isAbsLiteralEv@Base 1.4
 _ZNK4CVC34Expr12isQuantifierEv@Base 1.4
 _ZNK4CVC34Expr13getBoundIndexEv@Base 1.4
 _ZNK4CVC34Expr13isInitializedEv@Base 1.4
 _ZNK4CVC34Expr13isPropLiteralEv@Base 1.4
 _ZNK4CVC34Expr14getExistentialEv@Base 1.4
 _ZNK4CVC34Expr15isAtomicFormulaEv@Base 1.4
 _ZNK4CVC34Expr16isBoolConnectiveEv@Base 1.4
 _ZNK4CVC34Expr18isAbsAtomicFormulaEv@Base 1.4
 _ZNK4CVC34Expr4hashEv@Base 1.4
 _ZNK4CVC34Expr4isEqEv@Base 1.4
 _ZNK4CVC34Expr4isOrEv@Base 1.4
 _ZNK4CVC34Expr4mkOpEv@Base 1.4
 _ZNK4CVC34Expr5arityEv@Base 1.4
 _ZNK4CVC34Expr5getEMEv@Base 1.4
 _ZNK4CVC34Expr5getOpEv@Base 1.4
 _ZNK4CVC34Expr5isAndEv@Base 1.4
 _ZNK4CVC34Expr5isITEEv@Base 1.4
 _ZNK4CVC34Expr5isIffEv@Base 1.4
 _ZNK4CVC34Expr5isNotEv@Base 1.4
 _ZNK4CVC34Expr5isVarEv@Base 1.4
 _ZNK4CVC34Expr5isXorEv@Base 1.4
 _ZNK4CVC34Expr6eqExprERKS0_@Base 1.4
 _ZNK4CVC34Expr6getUidEv@Base 1.4
 _ZNK4CVC34Expr6isImplEv@Base 1.4
 _ZNK4CVC34Expr6isTermEv@Base 1.4
 _ZNK4CVC34Expr6isTrueEv@Base 1.4
 _ZNK4CVC34Expr6isTypeEv@Base 1.4
 _ZNK4CVC34Expr6negateEv@Base 1.4
 _ZNK4CVC34Expr6orExprERKS0_@Base 1.4
 _ZNK4CVC34Expr6pprintEv@Base 1.4
 _ZNK4CVC34Expr7andExprERKS0_@Base 1.4
 _ZNK4CVC34Expr7getBodyEv@Base 1.4
 _ZNK4CVC34Expr7getExprEv@Base 1.4
 _ZNK4CVC34Expr7getKidsEv@Base 1.4
 _ZNK4CVC34Expr7getNameEv@Base 1.4
 _ZNK4CVC34Expr7getTypeEv@Base 1.4
 _ZNK4CVC34Expr7getVarsEv@Base 1.4
 _ZNK4CVC34Expr7iffExprERKS0_@Base 1.4
 _ZNK4CVC34Expr7impExprERKS0_@Base 1.4
 _ZNK4CVC34Expr7isApplyEv@Base 1.4
 _ZNK4CVC34Expr7isFalseEv@Base 1.4
 _ZNK4CVC34Expr7iteExprERKS0_S2_@Base 1.4
 _ZNK4CVC34Expr7notExprEv@Base 1.4
 _ZNK4CVC34Expr7xorExprERKS0_@Base 1.4
 _ZNK4CVC34Expr8getIndexEv@Base 1.4
 _ZNK4CVC34Expr8isAtomicEv@Base 1.4
 _ZNK4CVC34Expr8isExistsEv@Base 1.4
 _ZNK4CVC34Expr8isForallEv@Base 1.4
 _ZNK4CVC34Expr8isLambdaEv@Base 1.4
 _ZNK4CVC34Expr8isSkolemEv@Base 1.4
 _ZNK4CVC34Expr8isStringEv@Base 1.4
 _ZNK4CVC34Expr8isSymbolEv@Base 1.4
 _ZNK4CVC34Expr8unnegateEv@Base 1.4
 _ZNK4CVC34Expr9getOpExprEv@Base 1.4
 _ZNK4CVC34Expr9getOpKindEv@Base 1.4
 _ZNK4CVC34Expr9getStringEv@Base 1.4
 _ZNK4CVC34Expr9isClosureEv@Base 1.4
 _ZNK4CVC34Expr9isLiteralEv@Base 1.4
 _ZNK4CVC34Expr9isRawListEv@Base 1.4
 _ZNK4CVC34Expr9isTheoremEv@Base 1.4
 _ZNK4CVC34Expr9substExprERKNS_11ExprHashMapIS0_EE@Base 1.4
 _ZNK4CVC34Expr9substExprERKSt6vectorIS0_SaIS0_EES5_@Base 1.4
 _ZNK4CVC34ExpraaERKS0_@Base 1.4
 _ZNK4CVC34ExprixEi@Base 1.4
 _ZNK4CVC34ExprntEv@Base 1.4
 _ZNK4CVC34ExprooERKS0_@Base 1.4
 _ZNK4CVC34Type10sizeFiniteEv@Base 1.4
 _ZNK4CVC34Type15enumerateFiniteEm@Base 1.4
 _ZNK4CVC34Type4cardEv@Base 1.4
 _ZNK4CVC34Type5arityEv@Base 1.4
 _ZNK4CVC34Type6isBoolEv@Base 1.4
 _ZNK4CVC34Type7funTypeERKS0_@Base 1.4
 _ZNK4CVC34Type7getExprEv@Base 1.4
 _ZNK4CVC34Type9isSubtypeEv@Base 1.4
 _ZNK4CVC34TypeixEi@Base 1.4
 _ZNK4CVC36CLFlag6getIntEv@Base 1.4
 _ZNK4CVC36CLFlag7displayEv@Base 1.4
 _ZNK4CVC36CLFlag7getBoolEv@Base 1.4
 _ZNK4CVC36CLFlag7getHelpEv@Base 1.4
 _ZNK4CVC36CLFlag7getTypeEv@Base 1.4
 _ZNK4CVC36CLFlag8modifiedEv@Base 1.4
 _ZNK4CVC36CLFlag9getStrVecEv@Base 1.4
 _ZNK4CVC36CLFlag9getStringEv@Base 1.4
 _ZNK4CVC37CLFlags10countFlagsERKSs@Base 1.4
 _ZNK4CVC37CLFlags10countFlagsERKSsRSt6vectorISsSaISsEE@Base 1.4
 _ZNK4CVC37CLFlags7getFlagERKSs@Base 1.4
 _ZNK4CVC37CLFlagsixERKSs@Base 1.4
 _ZNK4CVC44Expr11getChildrenEv@Base 1.4
 _ZNK4CVC46parser15ParserException8toStreamERSo@Base 1.4
 _ZNK4CVC48Rational10isIntegralEv@Base 1.4
 _ZNK4CVC49Exception4whatEv@Base 1.4
 _ZNK4CVC49Exception8toStreamERSo@Base 1.4
 _ZNKSt5ctypeIcE8do_widenEc@Base 1.4
 _ZNSt12_Destroy_auxILb0EE9__destroyIPSsEEvT_S3_@Base 1.4
 _ZNSt12_Destroy_auxILb0EE9__destroyIPSt4pairISsbEEEvT_S5_@Base 1.4
 _ZNSt15basic_stringbufIcSt11char_traitsIcESaIcEED0Ev@Base 1.4
 _ZNSt15basic_stringbufIcSt11char_traitsIcESaIcEED1Ev@Base 1.4
 _ZNSt15basic_stringbufIcSt11char_traitsIcESaIcEED2Ev@Base 1.4
 _ZNSt20__uninitialized_copyILb0EE13__uninit_copyIN9__gnu_cxx17__normal_iteratorIPKN4CVC419DatatypeConstructorESt6vectorIS5_SaIS5_EEEEPS5_EET0_T_SE_SD_@Base 1.4
 _ZNSt20__uninitialized_copyILb0EE13__uninit_copyIPN4CVC34ExprES4_EET0_T_S6_S5_@Base 1.4
 _ZNSt20__uninitialized_copyILb0EE13__uninit_copyIPN4CVC44ExprES4_EET0_T_S6_S5_@Base 1.4
 _ZNSt20__uninitialized_copyILb0EE13__uninit_copyIPN4CVC44TypeES4_EET0_T_S6_S5_@Base 1.4
 _ZNSt20__uninitialized_copyILb0EE13__uninit_copyIPN4CVC48DatatypeES4_EET0_T_S6_S5_@Base 1.4
 _ZNSt20__uninitialized_copyILb0EE13__uninit_copyIPSt4pairISsN4CVC44TypeEES6_EET0_T_S8_S7_@Base 1.4
 _ZNSt20__uninitialized_copyILb0EE13__uninit_copyIPSt4pairISsbES4_EET0_T_S6_S5_@Base 1.4
 _ZNSt20__uninitialized_copyILb0EE13__uninit_copyIPSt6vectorIN4CVC34ExprESaIS4_EES7_EET0_T_S9_S8_@Base 1.4
 _ZNSt20__uninitialized_copyILb0EE13__uninit_copyIPSt6vectorIS2_IN4CVC34ExprESaIS4_EESaIS6_EES9_EET0_T_SB_SA_@Base 1.4
 _ZNSt20__uninitialized_copyILb0EE13__uninit_copyIPSt6vectorIS2_ISsSaISsEESaIS4_EES7_EET0_T_S9_S8_@Base 1.4
 _ZNSt20__uninitialized_copyILb0EE13__uninit_copyIPSt6vectorISsSaISsEES5_EET0_T_S7_S6_@Base 1.4
 _ZNSt3mapIPN4CVC411ExprManagerENS0_24ExprManagerMapCollectionESt4lessIS2_ESaISt4pairIKS2_S3_EEEixERS7_@Base 1.4
 _ZNSt3mapIPN4CVC411ExprManagerEPN4CVC315ValidityCheckerESt4lessIS2_ESaISt4pairIKS2_S5_EEED1Ev@Base 1.4
 _ZNSt3mapIPN4CVC411ExprManagerEPN4CVC315ValidityCheckerESt4lessIS2_ESaISt4pairIKS2_S5_EEED2Ev@Base 1.4
 _ZNSt3mapIPN4CVC411ExprManagerEPN4CVC315ValidityCheckerESt4lessIS2_ESaISt4pairIKS2_S5_EEEixERS9_@Base 1.4
 _ZNSt4pairIKN4CVC34ExprENS0_4TypeEED1Ev@Base 1.4
 _ZNSt4pairIKN4CVC34ExprENS0_4TypeEED2Ev@Base 1.4
 _ZNSt4pairIKN4CVC34TypeENS0_4ExprEED1Ev@Base 1.4
 _ZNSt4pairIKN4CVC34TypeENS0_4ExprEED2Ev@Base 1.4
 _ZNSt4pairISsN4CVC44TypeEED1Ev@Base 1.4
 _ZNSt4pairISsN4CVC44TypeEED2Ev@Base 1.4
 _ZNSt6vectorIN4CVC34ExprESaIS1_EE13_M_insert_auxEN9__gnu_cxx17__normal_iteratorIPS1_S3_EERKS1_@Base 1.4
 _ZNSt6vectorIN4CVC34ExprESaIS1_EEC1ERKS3_@Base 1.4
 _ZNSt6vectorIN4CVC34ExprESaIS1_EEC2ERKS3_@Base 1.4
 _ZNSt6vectorIN4CVC34ExprESaIS1_EED1Ev@Base 1.4
 _ZNSt6vectorIN4CVC34ExprESaIS1_EED2Ev@Base 1.4
 _ZNSt6vectorIN4CVC34ExprESaIS1_EEaSERKS3_@Base 1.4
 _ZNSt6vectorIN4CVC34TypeESaIS1_EE13_M_insert_auxEN9__gnu_cxx17__normal_iteratorIPS1_S3_EERKS1_@Base 1.4
 _ZNSt6vectorIN4CVC34TypeESaIS1_EED1Ev@Base 1.4
 _ZNSt6vectorIN4CVC34TypeESaIS1_EED2Ev@Base 1.4
 _ZNSt6vectorIN4CVC412DatatypeTypeESaIS1_EED1Ev@Base 1.4
 _ZNSt6vectorIN4CVC412DatatypeTypeESaIS1_EED2Ev@Base 1.4
 _ZNSt6vectorIN4CVC419DatatypeConstructorESaIS1_EED1Ev@Base 1.4
 _ZNSt6vectorIN4CVC419DatatypeConstructorESaIS1_EED2Ev@Base 1.4
 _ZNSt6vectorIN4CVC419DatatypeConstructorESaIS1_EEaSERKS3_@Base 1.4
 _ZNSt6vectorIN4CVC422DatatypeConstructorArgESaIS1_EEaSERKS3_@Base 1.4
 _ZNSt6vectorIN4CVC44ExprESaIS1_EE13_M_insert_auxEN9__gnu_cxx17__normal_iteratorIPS1_S3_EERKS1_@Base 1.4
 _ZNSt6vectorIN4CVC44ExprESaIS1_EE15_M_range_insertIN9__gnu_cxx17__normal_iteratorIPKN4CVC34ExprES_IS8_SaIS8_EEEEEEvNS6_IPS1_S3_EET_SG_St20forward_iterator_tag@Base 1.4
 _ZNSt6vectorIN4CVC44ExprESaIS1_EED1Ev@Base 1.4
 _ZNSt6vectorIN4CVC44ExprESaIS1_EED2Ev@Base 1.4
 _ZNSt6vectorIN4CVC44TypeESaIS1_EE13_M_insert_auxEN9__gnu_cxx17__normal_iteratorIPS1_S3_EERKS1_@Base 1.4
 _ZNSt6vectorIN4CVC44TypeESaIS1_EED1Ev@Base 1.4
 _ZNSt6vectorIN4CVC44TypeESaIS1_EED2Ev@Base 1.4
 _ZNSt6vectorIN4CVC44TypeESaIS1_EEaSERKS3_@Base 1.4
 _ZNSt6vectorIN4CVC48DatatypeESaIS1_EE13_M_insert_auxEN9__gnu_cxx17__normal_iteratorIPS1_S3_EERKS1_@Base 1.4
 _ZNSt6vectorIN4CVC48DatatypeESaIS1_EED1Ev@Base 1.4
 _ZNSt6vectorIN4CVC48DatatypeESaIS1_EED2Ev@Base 1.4
 _ZNSt6vectorIPN9__gnu_cxx15_Hashtable_nodeISt4pairIKN4CVC34ExprENS3_4TypeEEEESaIS9_EE14_M_fill_insertENS0_17__normal_iteratorIPS9_SB_EEmRKS9_@Base 1.4
 _ZNSt6vectorIPN9__gnu_cxx15_Hashtable_nodeISt4pairIKN4CVC34TypeENS3_4ExprEEEESaIS9_EE14_M_fill_insertENS0_17__normal_iteratorIPS9_SB_EEmRKS9_@Base 1.4
 _ZNSt6vectorIPN9__gnu_cxx15_Hashtable_nodeISt4pairIKN4CVC44ExprES4_EEESaIS8_EE14_M_fill_insertENS0_17__normal_iteratorIPS8_SA_EEmRKS8_@Base 1.4
 _ZNSt6vectorIPN9__gnu_cxx15_Hashtable_nodeISt4pairIKN4CVC44ExprES4_EEESaIS8_EE7reserveEm@Base 1.4
 _ZNSt6vectorIPN9__gnu_cxx15_Hashtable_nodeISt4pairIKN4CVC44TypeES4_EEESaIS8_EE14_M_fill_insertENS0_17__normal_iteratorIPS8_SA_EEmRKS8_@Base 1.4
 _ZNSt6vectorIPN9__gnu_cxx15_Hashtable_nodeISt4pairIKN4CVC44TypeES4_EEESaIS8_EE7reserveEm@Base 1.4
 _ZNSt6vectorIPN9__gnu_cxx15_Hashtable_nodeISt4pairIKSsPKN4CVC48DatatypeEEEESaISA_EE14_M_fill_insertENS0_17__normal_iteratorIPSA_SC_EEmRKSA_@Base 1.4
 _ZNSt6vectorIPN9__gnu_cxx15_Hashtable_nodeISt4pairIKSsS2_IPKN4CVC48DatatypeESsEEEESaISB_EE14_M_fill_insertENS0_17__normal_iteratorIPSB_SD_EEmRKSB_@Base 1.4
 _ZNSt6vectorIPN9__gnu_cxx15_Hashtable_nodeISt4pairIKmmEEESaIS6_EE14_M_fill_insertENS0_17__normal_iteratorIPS6_S8_EEmRKS6_@Base 1.4
 _ZNSt6vectorIPN9__gnu_cxx15_Hashtable_nodeISt4pairIKmmEEESaIS6_EE7reserveEm@Base 1.4
 _ZNSt6vectorIS_IN4CVC34ExprESaIS1_EESaIS3_EE13_M_insert_auxEN9__gnu_cxx17__normal_iteratorIPS3_S5_EERKS3_@Base 1.4
 _ZNSt6vectorIS_IN4CVC34ExprESaIS1_EESaIS3_EEC1ERKS5_@Base 1.4
 _ZNSt6vectorIS_IN4CVC34ExprESaIS1_EESaIS3_EEC2ERKS5_@Base 1.4
 _ZNSt6vectorIS_IN4CVC34ExprESaIS1_EESaIS3_EED1Ev@Base 1.4
 _ZNSt6vectorIS_IN4CVC34ExprESaIS1_EESaIS3_EED2Ev@Base 1.4
 _ZNSt6vectorIS_IN4CVC34ExprESaIS1_EESaIS3_EEaSERKS5_@Base 1.4
 _ZNSt6vectorIS_IS_IN4CVC34ExprESaIS1_EESaIS3_EESaIS5_EE13_M_insert_auxEN9__gnu_cxx17__normal_iteratorIPS5_S7_EERKS5_@Base 1.4
 _ZNSt6vectorIS_IS_IN4CVC34ExprESaIS1_EESaIS3_EESaIS5_EED1Ev@Base 1.4
 _ZNSt6vectorIS_IS_IN4CVC34ExprESaIS1_EESaIS3_EESaIS5_EED2Ev@Base 1.4
 _ZNSt6vectorIS_IS_ISsSaISsEESaIS1_EESaIS3_EE13_M_insert_auxEN9__gnu_cxx17__normal_iteratorIPS3_S5_EERKS3_@Base 1.4
 _ZNSt6vectorIS_IS_ISsSaISsEESaIS1_EESaIS3_EED1Ev@Base 1.4
 _ZNSt6vectorIS_IS_ISsSaISsEESaIS1_EESaIS3_EED2Ev@Base 1.4
 _ZNSt6vectorIS_ISsSaISsEESaIS1_EE13_M_insert_auxEN9__gnu_cxx17__normal_iteratorIPS1_S3_EERKS1_@Base 1.4
 _ZNSt6vectorIS_ISsSaISsEESaIS1_EEC1ERKS3_@Base 1.4
 _ZNSt6vectorIS_ISsSaISsEESaIS1_EEC2ERKS3_@Base 1.4
 _ZNSt6vectorIS_ISsSaISsEESaIS1_EED1Ev@Base 1.4
 _ZNSt6vectorIS_ISsSaISsEESaIS1_EED2Ev@Base 1.4
 _ZNSt6vectorIS_ISsSaISsEESaIS1_EEaSERKS3_@Base 1.4
 _ZNSt6vectorISsSaISsEE13_M_insert_auxEN9__gnu_cxx17__normal_iteratorIPSsS1_EERKSs@Base 1.4
 _ZNSt6vectorISsSaISsEEC1ERKS1_@Base 1.4
 _ZNSt6vectorISsSaISsEEC2ERKS1_@Base 1.4
 _ZNSt6vectorISsSaISsEED1Ev@Base 1.4
 _ZNSt6vectorISsSaISsEED2Ev@Base 1.4
 _ZNSt6vectorISsSaISsEEaSERKS1_@Base 1.4
 _ZNSt6vectorISt4pairISsN4CVC44TypeEESaIS3_EE13_M_insert_auxEN9__gnu_cxx17__normal_iteratorIPS3_S5_EERKS3_@Base 1.4
 _ZNSt6vectorISt4pairISsN4CVC44TypeEESaIS3_EEC1ERKS5_@Base 1.4
 _ZNSt6vectorISt4pairISsN4CVC44TypeEESaIS3_EEC2ERKS5_@Base 1.4
 _ZNSt6vectorISt4pairISsN4CVC44TypeEESaIS3_EED1Ev@Base 1.4
 _ZNSt6vectorISt4pairISsN4CVC44TypeEESaIS3_EED2Ev@Base 1.4
 _ZNSt6vectorISt4pairISsbESaIS1_EE13_M_insert_auxEN9__gnu_cxx17__normal_iteratorIPS1_S3_EERKS1_@Base 1.4
 _ZNSt6vectorISt4pairISsbESaIS1_EEaSERKS3_@Base 1.4
 _ZNSt8_Rb_treeIN4CVC44TypeES1_St9_IdentityIS1_ESt4lessIS1_ESaIS1_EE8_M_eraseEPSt13_Rb_tree_nodeIS1_E@Base 1.4
 _ZNSt8_Rb_treeIN4CVC44kind6Kind_tES2_St9_IdentityIS2_ESt4lessIS2_ESaIS2_EE8_M_eraseEPSt13_Rb_tree_nodeIS2_E@Base 1.4
 _ZNSt8_Rb_treeIPN4CVC315ValidityCheckerES2_St9_IdentityIS2_ESt4lessIS2_ESaIS2_EE16_M_insert_uniqueERKS2_@Base 1.4
 _ZNSt8_Rb_treeIPN4CVC315ValidityCheckerES2_St9_IdentityIS2_ESt4lessIS2_ESaIS2_EE8_M_eraseEPSt13_Rb_tree_nodeIS2_E@Base 1.4
 _ZNSt8_Rb_treeIPN4CVC411ExprManagerESt4pairIKS2_NS0_24ExprManagerMapCollectionEESt10_Select1stIS6_ESt4lessIS2_ESaIS6_EE12_M_erase_auxESt23_Rb_tree_const_iteratorIS6_ESE_@Base 1.4
 _ZNSt8_Rb_treeIPN4CVC411ExprManagerESt4pairIKS2_NS0_24ExprManagerMapCollectionEESt10_Select1stIS6_ESt4lessIS2_ESaIS6_EE17_M_insert_unique_ESt23_Rb_tree_const_iteratorIS6_ERKS6_@Base 1.4
 _ZNSt8_Rb_treeIPN4CVC411ExprManagerESt4pairIKS2_NS0_24ExprManagerMapCollectionEESt10_Select1stIS6_ESt4lessIS2_ESaIS6_EE24_M_get_insert_unique_posERS4_@Base 1.4
 _ZNSt8_Rb_treeIPN4CVC411ExprManagerESt4pairIKS2_NS0_24ExprManagerMapCollectionEESt10_Select1stIS6_ESt4lessIS2_ESaIS6_EE8_M_eraseEPSt13_Rb_tree_nodeIS6_E@Base 1.4
 _ZNSt8_Rb_treeIPN4CVC411ExprManagerESt4pairIKS2_PN4CVC315ValidityCheckerEESt10_Select1stIS8_ESt4lessIS2_ESaIS8_EE24_M_get_insert_unique_posERS4_@Base 1.4
 _ZNSt8_Rb_treeIPN4CVC411ExprManagerESt4pairIKS2_PN4CVC315ValidityCheckerEESt10_Select1stIS8_ESt4lessIS2_ESaIS8_EE29_M_get_insert_hint_unique_posESt23_Rb_tree_const_iteratorIS8_ERS4_@Base 1.4
 _ZNSt8_Rb_treeIPN4CVC411ExprManagerESt4pairIKS2_PN4CVC315ValidityCheckerEESt10_Select1stIS8_ESt4lessIS2_ESaIS8_EE5eraseERS4_@Base 1.4
 _ZNSt8_Rb_treeIPN4CVC411ExprManagerESt4pairIKS2_PN4CVC315ValidityCheckerEESt10_Select1stIS8_ESt4lessIS2_ESaIS8_EE8_M_eraseEPSt13_Rb_tree_nodeIS8_E@Base 1.4
 _ZNSt8_Rb_treeISsSsSt9_IdentityISsESt4lessISsESaISsEE8_M_eraseEPSt13_Rb_tree_nodeISsE@Base 1.4
 _ZNSt8_Rb_treeISsSt4pairIKSsN4CVC36CLFlagEESt10_Select1stIS4_ESt4lessISsESaIS4_EE24_M_get_insert_unique_posERS1_@Base 1.4
 _ZNSt8_Rb_treeISsSt4pairIKSsN4CVC36CLFlagEESt10_Select1stIS4_ESt4lessISsESaIS4_EE29_M_get_insert_hint_unique_posESt23_Rb_tree_const_iteratorIS4_ERS1_@Base 1.4
 _ZNSt8_Rb_treeISsSt4pairIKSsN4CVC36CLFlagEESt10_Select1stIS4_ESt4lessISsESaIS4_EE4findERS1_@Base 1.4
 _ZNSt8_Rb_treeISsSt4pairIKSsN4CVC36CLFlagEESt10_Select1stIS4_ESt4lessISsESaIS4_EE7_M_copyEPKSt13_Rb_tree_nodeIS4_EPSC_@Base 1.4
 _ZNSt8_Rb_treeISsSt4pairIKSsN4CVC36CLFlagEESt10_Select1stIS4_ESt4lessISsESaIS4_EE8_M_eraseEPSt13_Rb_tree_nodeIS4_E@Base 1.4
 _ZStplIcSt11char_traitsIcESaIcEESbIT_T0_T1_EPKS3_RKS6_@Base 1.4
 _ZTIN4CVC315ValidityCheckerE@Base 1.4
 _ZTIN4CVC34TypeE@Base 1.4
 _ZTIN4CVC410RecordTypeE@Base 1.4
 _ZTIN4CVC411BooleanTypeE@Base 1.4
 _ZTIN4CVC411IntegerTypeE@Base 1.4
 _ZTIN4CVC412FunctionTypeE@Base 1.4
 _ZTIN4CVC413BitVectorTypeE@Base 1.4
 _ZTIN4CVC414ModalExceptionE@Base 1.4
 _ZTIN4CVC424IllegalArgumentExceptionE@Base 1.4
 _ZTIN4CVC46parser15ParserExceptionE@Base 1.4
 _ZTIN4CVC46parser6ParserE@Base 1.4
 _ZTIN4CVC48RealTypeE@Base 1.4
 _ZTIN4CVC48SortTypeE@Base 1.4
 _ZTIN4CVC49ArrayTypeE@Base 1.4
 _ZTIN4CVC49ExceptionE@Base 1.4
 _ZTIN4CVC49TupleTypeE@Base 1.4
 _ZTSN4CVC315ValidityCheckerE@Base 1.4
 _ZTSN4CVC34TypeE@Base 1.4
 _ZTSN4CVC410RecordTypeE@Base 1.4
 _ZTSN4CVC411BooleanTypeE@Base 1.4
 _ZTSN4CVC411IntegerTypeE@Base 1.4
 _ZTSN4CVC412FunctionTypeE@Base 1.4
 _ZTSN4CVC413BitVectorTypeE@Base 1.4
 _ZTSN4CVC414ModalExceptionE@Base 1.4
 _ZTSN4CVC424IllegalArgumentExceptionE@Base 1.4
 _ZTSN4CVC46parser15ParserExceptionE@Base 1.4
 _ZTSN4CVC46parser6ParserE@Base 1.4
 _ZTSN4CVC48RealTypeE@Base 1.4
 _ZTSN4CVC48SortTypeE@Base 1.4
 _ZTSN4CVC49ArrayTypeE@Base 1.4
 _ZTSN4CVC49ExceptionE@Base 1.4
 _ZTSN4CVC49TupleTypeE@Base 1.4
 _ZTVN4CVC315ValidityCheckerE@Base 1.4
 _ZTVN4CVC34TypeE@Base 1.4
 _ZTVN4CVC410RecordTypeE@Base 1.4
 _ZTVN4CVC411BooleanTypeE@Base 1.4
 _ZTVN4CVC411IntegerTypeE@Base 1.4
 _ZTVN4CVC412FunctionTypeE@Base 1.4
 _ZTVN4CVC413BitVectorTypeE@Base 1.4
 _ZTVN4CVC424IllegalArgumentExceptionE@Base 1.4
 _ZTVN4CVC46parser15ParserExceptionE@Base 1.4
 _ZTVN4CVC46parser6ParserE@Base 1.4
 _ZTVN4CVC48RealTypeE@Base 1.4
 _ZTVN4CVC48SortTypeE@Base 1.4
 _ZTVN4CVC49ArrayTypeE@Base 1.4
 _ZTVN4CVC49ExceptionE@Base 1.4
 _ZTVN4CVC49TupleTypeE@Base 1.4
