libcvc4.so.3 libcvc4-3 #MINVER#
 _ZN4CVC410PopCommand6invokeEPNS_9SmtEngineE@Base 1.4
 _ZN4CVC410PopCommand8exportToEPNS_11ExprManagerERNS_24ExprManagerMapCollectionE@Base 1.4
 _ZN4CVC410PopCommandD0Ev@Base 1.4
 _ZN4CVC410PopCommandD1Ev@Base 1.4
 _ZN4CVC410PopCommandD2Ev@Base 1.4
 _ZN4CVC410RecordTypeC1ERKNS_4TypeE@Base 1.4
 _ZN4CVC410RecordTypeC2ERKNS_4TypeE@Base 1.4
 _ZN4CVC410RecordTypeD0Ev@Base 1.4
 _ZN4CVC410RecordTypeD1Ev@Base 1.4
 _ZN4CVC410RecordTypeD2Ev@Base 1.4
 _ZN4CVC410Statistics5clearEv@Base 1.4
 _ZN4CVC410Statistics8copyFromERKNS_14StatisticsBaseE@Base 1.4
 _ZN4CVC410StatisticsC1ERKNS_14StatisticsBaseE@Base 1.4
 _ZN4CVC410StatisticsC1ERKS0_@Base 1.4
 _ZN4CVC410StatisticsC2ERKNS_14StatisticsBaseE@Base 1.4
 _ZN4CVC410StatisticsC2ERKS0_@Base 1.4
 _ZN4CVC410StatisticsD0Ev@Base 1.4
 _ZN4CVC410StatisticsD1Ev@Base 1.4
 _ZN4CVC410StatisticsD2Ev@Base 1.4
 _ZN4CVC410StatisticsaSERKNS_14StatisticsBaseE@Base 1.4
 _ZN4CVC410StatisticsaSERKS0_@Base 1.4
 _ZN4CVC410StringTypeC1ERKNS_4TypeE@Base 1.4
 _ZN4CVC410StringTypeC2ERKNS_4TypeE@Base 1.4
 _ZN4CVC410StringTypeD0Ev@Base 1.4
 _ZN4CVC410StringTypeD1Ev@Base 1.4
 _ZN4CVC410StringTypeD2Ev@Base 1.4
 _ZN4CVC410TesterTypeC1ERKNS_4TypeE@Base 1.4
 _ZN4CVC410TesterTypeC2ERKNS_4TypeE@Base 1.4
 _ZN4CVC410TesterTypeD0Ev@Base 1.4
 _ZN4CVC410TesterTypeD1Ev@Base 1.4
 _ZN4CVC410TesterTypeD2Ev@Base 1.4
 _ZN4CVC411BooleanTypeC1ERKNS_4TypeE@Base 1.4
 _ZN4CVC411BooleanTypeC2ERKNS_4TypeE@Base 1.4
 _ZN4CVC411BooleanTypeD0Ev@Base 1.4
 _ZN4CVC411BooleanTypeD1Ev@Base 1.4
 _ZN4CVC411BooleanTypeD2Ev@Base 1.4
 _ZN4CVC411CVC4ostream16s_indentIosIndexE@Base 1.4
 _ZN4CVC411CVC4ostream5s_tabE@Base 1.4
 _ZN4CVC411CVC4ostreamlsIA11_cEERS0_RKT_@Base 1.4
 _ZN4CVC411CVC4ostreamlsIA12_cEERS0_RKT_@Base 1.4
 _ZN4CVC411CVC4ostreamlsIA17_cEERS0_RKT_@Base 1.4
 _ZN4CVC411CVC4ostreamlsIA21_cEERS0_RKT_@Base 1.4
 _ZN4CVC411CVC4ostreamlsIA25_cEERS0_RKT_@Base 1.4
 _ZN4CVC411CVC4ostreamlsIA26_cEERS0_RKT_@Base 1.4
 _ZN4CVC411CVC4ostreamlsIA27_cEERS0_RKT_@Base 1.4
 _ZN4CVC411CVC4ostreamlsIA28_cEERS0_RKT_@Base 1.4
 _ZN4CVC411CVC4ostreamlsIA30_cEERS0_RKT_@Base 1.4
 _ZN4CVC411CVC4ostreamlsIA37_cEERS0_RKT_@Base 1.4
 _ZN4CVC411CVC4ostreamlsIA39_cEERS0_RKT_@Base 1.4
 _ZN4CVC411CVC4ostreamlsIA41_cEERS0_RKT_@Base 1.4
 _ZN4CVC411CVC4ostreamlsIA4_cEERS0_RKT_@Base 1.4
 _ZN4CVC411CVC4ostreamlsIA65_cEERS0_RKT_@Base 1.4
 _ZN4CVC411CVC4ostreamlsIA69_cEERS0_RKT_@Base 1.4
 _ZN4CVC411CVC4ostreamlsIA83_cEERS0_RKT_@Base 1.4
 _ZN4CVC411CVC4ostreamlsIA9_cEERS0_RKT_@Base 1.4
 _ZN4CVC411CVC4ostreamlsINS_12NodeTemplateILb1EEEEERS0_RKT_@Base 1.4
 _ZN4CVC411CVC4ostreamlsINS_4ExprEEERS0_RKT_@Base 1.4
 _ZN4CVC411CVC4ostreamlsINS_6theory5arith11BoundCountsEEERS0_RKT_@Base 1.4
 _ZN4CVC411CVC4ostreamlsIPNS_6theory5arith11Constraint_EEERS0_RKT_@Base 1.4
 _ZN4CVC411CVC4ostreamlsIjEERS0_RKT_@Base 1.4
 _ZN4CVC411CVC4ostreamlsImEERS0_RKT_@Base 1.4
 _ZN4CVC411Cardinality10s_realCardE@Base 1.4
 _ZN4CVC411Cardinality12UNKNOWN_CARDE@Base 1.4
 _ZN4CVC411Cardinality13s_unknownCardE@Base 1.4
 _ZN4CVC411Cardinality17s_largeFiniteCardE@Base 1.4
 _ZN4CVC411Cardinality5REALSE@Base 1.4
 _ZN4CVC411Cardinality8INTEGERSE@Base 1.4
 _ZN4CVC411Cardinality9s_intCardE@Base 1.4
 _ZN4CVC411CardinalityC1ENS_15CardinalityBethE@Base 1.4
 _ZN4CVC411CardinalityC1ERKNS_7IntegerE@Base 1.4
 _ZN4CVC411CardinalityC1El@Base 1.4
 _ZN4CVC411CardinalityC2ENS_15CardinalityBethE@Base 1.4
 _ZN4CVC411CardinalityC2ERKNS_7IntegerE@Base 1.4
 _ZN4CVC411CardinalityC2El@Base 1.4
 _ZN4CVC411CardinalityD1Ev@Base 1.4
 _ZN4CVC411CardinalityD2Ev@Base 1.4
 _ZN4CVC411CardinalityeOERKS0_@Base 1.4
 _ZN4CVC411CardinalitymLERKS0_@Base 1.4
 _ZN4CVC411CardinalitypLERKS0_@Base 1.4
 _ZN4CVC411ChatChannelE@Base 1.4
 _ZN4CVC411DumpChannelE@Base 1.4
 _ZN4CVC411EchoCommand6invokeEPNS_9SmtEngineE@Base 1.4
 _ZN4CVC411EchoCommand6invokeEPNS_9SmtEngineERSo@Base 1.4
 _ZN4CVC411EchoCommand8exportToEPNS_11ExprManagerERNS_24ExprManagerMapCollectionE@Base 1.4
 _ZN4CVC411EchoCommandC1ESs@Base 1.4
 _ZN4CVC411EchoCommandC2ESs@Base 1.4
 _ZN4CVC411EchoCommandD0Ev@Base 1.4
 _ZN4CVC411EchoCommandD1Ev@Base 1.4
 _ZN4CVC411EchoCommandD2Ev@Base 1.4
 _ZN4CVC411ExprManager10exportTypeERKNS_4TypeEPS0_RNS_24ExprManagerMapCollectionE@Base 1.4
 _ZN4CVC411ExprManager10mkBoundVarENS_4TypeE@Base 1.4
 _ZN4CVC411ExprManager10mkBoundVarERKSsNS_4TypeE@Base 1.4
 _ZN4CVC411ExprManager10operatorOfENS_4kind6Kind_tE@Base 1.4
 _ZN4CVC411ExprManager11hasOperatorENS_4kind6Kind_tE@Base 1.4
 _ZN4CVC411ExprManager11mkSExprTypeERKSt6vectorINS_4TypeESaIS2_EE@Base 1.4
 _ZN4CVC411ExprManager11mkTupleTypeERKSt6vectorINS_4TypeESaIS2_EE@Base 1.4
 _ZN4CVC411ExprManager12mkRecordTypeERKNS_6RecordE@Base 1.4
 _ZN4CVC411ExprManager13mkAssociativeENS_4kind6Kind_tERKSt6vectorINS_4ExprESaIS4_EE@Base 1.4
 _ZN4CVC411ExprManager14mkDatatypeTypeERKNS_8DatatypeE@Base 1.4
 _ZN4CVC411ExprManager14mkFunctionTypeENS_4TypeES1_@Base 1.4
 _ZN4CVC411ExprManager14mkFunctionTypeERKSt6vectorINS_4TypeESaIS2_EE@Base 1.4
 _ZN4CVC411ExprManager14mkFunctionTypeERKSt6vectorINS_4TypeESaIS2_EES2_@Base 1.4
 _ZN4CVC411ExprManager14mkSubrangeTypeERKNS_14SubrangeBoundsE@Base 1.4
 _ZN4CVC411ExprManager15mkPredicateTypeERKSt6vectorINS_4TypeESaIS2_EE@Base 1.4
 _ZN4CVC411ExprManager21getStatisticsRegistryEv@Base 1.4
 _ZN4CVC411ExprManager21mkMutualDatatypeTypesERKSt6vectorINS_8DatatypeESaIS2_EE@Base 1.4
 _ZN4CVC411ExprManager21mkMutualDatatypeTypesERKSt6vectorINS_8DatatypeESaIS2_EERKSt3setINS_4TypeESt4lessIS8_ESaIS8_EE@Base 1.4
 _ZN4CVC411ExprManager5mkVarENS_4TypeEj@Base 1.4
 _ZN4CVC411ExprManager5mkVarERKSsNS_4TypeEj@Base 1.4
 _ZN4CVC411ExprManager6mkExprENS_4ExprE@Base 1.4
 _ZN4CVC411ExprManager6mkExprENS_4ExprERKSt6vectorIS1_SaIS1_EE@Base 1.4
 _ZN4CVC411ExprManager6mkExprENS_4ExprES1_@Base 1.4
 _ZN4CVC411ExprManager6mkExprENS_4ExprES1_S1_@Base 1.4
 _ZN4CVC411ExprManager6mkExprENS_4ExprES1_S1_S1_@Base 1.4
 _ZN4CVC411ExprManager6mkExprENS_4ExprES1_S1_S1_S1_@Base 1.4
 _ZN4CVC411ExprManager6mkExprENS_4ExprES1_S1_S1_S1_S1_@Base 1.4
 _ZN4CVC411ExprManager6mkExprENS_4kind6Kind_tENS_4ExprE@Base 1.4
 _ZN4CVC411ExprManager6mkExprENS_4kind6Kind_tENS_4ExprERKSt6vectorIS3_SaIS3_EE@Base 1.4
 _ZN4CVC411ExprManager6mkExprENS_4kind6Kind_tENS_4ExprES3_@Base 1.4
 _ZN4CVC411ExprManager6mkExprENS_4kind6Kind_tENS_4ExprES3_S3_@Base 1.4
 _ZN4CVC411ExprManager6mkExprENS_4kind6Kind_tENS_4ExprES3_S3_S3_@Base 1.4
 _ZN4CVC411ExprManager6mkExprENS_4kind6Kind_tENS_4ExprES3_S3_S3_S3_@Base 1.4
 _ZN4CVC411ExprManager6mkExprENS_4kind6Kind_tERKSt6vectorINS_4ExprESaIS4_EE@Base 1.4
 _ZN4CVC411ExprManager7getTypeENS_4ExprEb@Base 1.4
 _ZN4CVC411ExprManager7mkConstINS_11TupleSelectEEENS_4ExprERKT_@Base 1.4
 _ZN4CVC411ExprManager7mkConstINS_11TupleUpdateEEENS_4ExprERKT_@Base 1.4
 _ZN4CVC411ExprManager7mkConstINS_12RecordSelectEEENS_4ExprERKT_@Base 1.4
 _ZN4CVC411ExprManager7mkConstINS_12RecordUpdateEEENS_4ExprERKT_@Base 1.4
 _ZN4CVC411ExprManager7mkConstINS_12TypeConstantEEENS_4ExprERKT_@Base 1.4
 _ZN4CVC411ExprManager7mkConstINS_13AbstractValueEEENS_4ExprERKT_@Base 1.4
 _ZN4CVC411ExprManager7mkConstINS_13ArrayStoreAllEEENS_4ExprERKT_@Base 1.4
 _ZN4CVC411ExprManager7mkConstINS_13BitVectorSizeEEENS_4ExprERKT_@Base 1.4
 _ZN4CVC411ExprManager7mkConstINS_14AscriptionTypeEEENS_4ExprERKT_@Base 1.4
 _ZN4CVC411ExprManager7mkConstINS_14BitVectorBitOfEEENS_4ExprERKT_@Base 1.4
 _ZN4CVC411ExprManager7mkConstINS_14IntToBitVectorEEENS_4ExprERKT_@Base 1.4
 _ZN4CVC411ExprManager7mkConstINS_14SubrangeBoundsEEENS_4ExprERKT_@Base 1.4
 _ZN4CVC411ExprManager7mkConstINS_15BitVectorRepeatEEENS_4ExprERKT_@Base 1.4
 _ZN4CVC411ExprManager7mkConstINS_16BitVectorExtractEEENS_4ExprERKT_@Base 1.4
 _ZN4CVC411ExprManager7mkConstINS_19BitVectorRotateLeftEEENS_4ExprERKT_@Base 1.4
 _ZN4CVC411ExprManager7mkConstINS_19BitVectorSignExtendEEENS_4ExprERKT_@Base 1.4
 _ZN4CVC411ExprManager7mkConstINS_19BitVectorZeroExtendEEENS_4ExprERKT_@Base 1.4
 _ZN4CVC411ExprManager7mkConstINS_20BitVectorRotateRightEEENS_4ExprERKT_@Base 1.4
 _ZN4CVC411ExprManager7mkConstINS_21UninterpretedConstantEEENS_4ExprERKT_@Base 1.4
 _ZN4CVC411ExprManager7mkConstINS_4kind6Kind_tEEENS_4ExprERKT_@Base 1.4
 _ZN4CVC411ExprManager7mkConstINS_5ChainEEENS_4ExprERKT_@Base 1.4
 _ZN4CVC411ExprManager7mkConstINS_6RecordEEENS_4ExprERKT_@Base 1.4
 _ZN4CVC411ExprManager7mkConstINS_6RegExpEEENS_4ExprERKT_@Base 1.4
 _ZN4CVC411ExprManager7mkConstINS_6StringEEENS_4ExprERKT_@Base 1.4
 _ZN4CVC411ExprManager7mkConstINS_8DatatypeEEENS_4ExprERKT_@Base 1.4
 _ZN4CVC411ExprManager7mkConstINS_8EmptySetEEENS_4ExprERKT_@Base 1.4
 _ZN4CVC411ExprManager7mkConstINS_8RationalEEENS_4ExprERKT_@Base 1.4
 _ZN4CVC411ExprManager7mkConstINS_9BitVectorEEENS_4ExprERKT_@Base 1.4
 _ZN4CVC411ExprManager7mkConstINS_9DivisibleEEENS_4ExprERKT_@Base 1.4
 _ZN4CVC411ExprManager7mkConstINS_9PredicateEEENS_4ExprERKT_@Base 1.4
 _ZN4CVC411ExprManager7mkConstIbEENS_4ExprERKT_@Base 1.4
 _ZN4CVC411ExprManager8maxArityENS_4kind6Kind_tE@Base 1.4
 _ZN4CVC411ExprManager8minArityENS_4kind6Kind_tE@Base 1.4
 _ZN4CVC411ExprManagerC1ERKNS_7OptionsE@Base 1.4
 _ZN4CVC411ExprManagerC1Ev@Base 1.4
 _ZN4CVC411ExprManagerC2ERKNS_7OptionsE@Base 1.4
 _ZN4CVC411ExprManagerC2Ev@Base 1.4
 _ZN4CVC411ExprManagerD1Ev@Base 1.4
 _ZN4CVC411ExprManagerD2Ev@Base 1.4
 _ZN4CVC411IntegerTypeC1ERKNS_4TypeE@Base 1.4
 _ZN4CVC411IntegerTypeC2ERKNS_4TypeE@Base 1.4
 _ZN4CVC411IntegerTypeD0Ev@Base 1.4
 _ZN4CVC411IntegerTypeD1Ev@Base 1.4
 _ZN4CVC411IntegerTypeD2Ev@Base 1.4
 _ZN4CVC411PushCommand6invokeEPNS_9SmtEngineE@Base 1.4
 _ZN4CVC411PushCommand8exportToEPNS_11ExprManagerERNS_24ExprManagerMapCollectionE@Base 1.4
 _ZN4CVC411PushCommandD0Ev@Base 1.4
 _ZN4CVC411PushCommandD1Ev@Base 1.4
 _ZN4CVC411PushCommandD2Ev@Base 1.4
 _ZN4CVC411QuitCommand6invokeEPNS_9SmtEngineE@Base 1.4
 _ZN4CVC411QuitCommand8exportToEPNS_11ExprManagerERNS_24ExprManagerMapCollectionE@Base 1.4
 _ZN4CVC411QuitCommandC1Ev@Base 1.4
 _ZN4CVC411QuitCommandC2Ev@Base 1.4
 _ZN4CVC411QuitCommandD0Ev@Base 1.4
 _ZN4CVC411QuitCommandD1Ev@Base 1.4
 _ZN4CVC411QuitCommandD2Ev@Base 1.4
 _ZN4CVC411SymbolTable11lookupArityERKSs@Base 1.4
 _ZN4CVC411SymbolTable19bindDefinedFunctionERKSsNS_4ExprEb@Base 1.4
 _ZN4CVC411SymbolTable4bindERKSsNS_4ExprEb@Base 1.4
 _ZN4CVC411SymbolTable8bindTypeERKSsNS_4TypeEb@Base 1.4
 _ZN4CVC411SymbolTable8bindTypeERKSsRKSt6vectorINS_4TypeESaIS4_EES4_b@Base 1.4
 _ZN4CVC411SymbolTable8popScopeEv@Base 1.4
 _ZN4CVC411SymbolTable9pushScopeEv@Base 1.4
 _ZN4CVC411SymbolTableC1Ev@Base 1.4
 _ZN4CVC411SymbolTableC2Ev@Base 1.4
 _ZN4CVC411SymbolTableD1Ev@Base 1.4
 _ZN4CVC411SymbolTableD2Ev@Base 1.4
 _ZN4CVC412DatatypeTypeC1ERKNS_4TypeE@Base 1.4
 _ZN4CVC412DatatypeTypeC2ERKNS_4TypeE@Base 1.4
 _ZN4CVC412DatatypeTypeD0Ev@Base 1.4
 _ZN4CVC412DatatypeTypeD1Ev@Base 1.4
 _ZN4CVC412DatatypeTypeD2Ev@Base 1.4
 _ZN4CVC412DebugChannelE@Base 1.4
 _ZN4CVC412EmptyCommand6invokeEPNS_9SmtEngineE@Base 1.4
 _ZN4CVC412EmptyCommand8exportToEPNS_11ExprManagerERNS_24ExprManagerMapCollectionE@Base 1.4
 _ZN4CVC412EmptyCommandC1ESs@Base 1.4
 _ZN4CVC412EmptyCommandC2ESs@Base 1.4
 _ZN4CVC412EmptyCommandD0Ev@Base 1.4
 _ZN4CVC412EmptyCommandD1Ev@Base 1.4
 _ZN4CVC412EmptyCommandD2Ev@Base 1.4
 _ZN4CVC412FunctionTypeC1ERKNS_4TypeE@Base 1.4
 _ZN4CVC412FunctionTypeC2ERKNS_4TypeE@Base 1.4
 _ZN4CVC412FunctionTypeD0Ev@Base 1.4
 _ZN4CVC412FunctionTypeD1Ev@Base 1.4
 _ZN4CVC412FunctionTypeD2Ev@Base 1.4
 _ZN4CVC412QueryCommand6invokeEPNS_9SmtEngineE@Base 1.4
 _ZN4CVC412QueryCommand8exportToEPNS_11ExprManagerERNS_24ExprManagerMapCollectionE@Base 1.4
 _ZN4CVC412QueryCommandC1ERKNS_4ExprE@Base 1.4
 _ZN4CVC412QueryCommandC2ERKNS_4ExprE@Base 1.4
 _ZN4CVC412QueryCommandD0Ev@Base 1.4
 _ZN4CVC412QueryCommandD1Ev@Base 1.4
 _ZN4CVC412QueryCommandD2Ev@Base 1.4
 _ZN4CVC412SelectorTypeC1ERKNS_4TypeE@Base 1.4
 _ZN4CVC412SelectorTypeC2ERKNS_4TypeE@Base 1.4
 _ZN4CVC412SelectorTypeD0Ev@Base 1.4
 _ZN4CVC412SelectorTypeD1Ev@Base 1.4
 _ZN4CVC412SelectorTypeD2Ev@Base 1.4
 _ZN4CVC412SubrangeTypeC1ERKNS_4TypeE@Base 1.4
 _ZN4CVC412SubrangeTypeC2ERKNS_4TypeE@Base 1.4
 _ZN4CVC412SubrangeTypeD0Ev@Base 1.4
 _ZN4CVC412SubrangeTypeD1Ev@Base 1.4
 _ZN4CVC412SubrangeTypeD2Ev@Base 1.4
 _ZN4CVC412TraceChannelE@Base 1.4
 _ZN4CVC413ArrayStoreAllC1ENS_9ArrayTypeENS_4ExprE@Base 1.4
 _ZN4CVC413ArrayStoreAllC1ERKS0_@Base 1.4
 _ZN4CVC413ArrayStoreAllC2ENS_9ArrayTypeENS_4ExprE@Base 1.4
 _ZN4CVC413ArrayStoreAllC2ERKS0_@Base 1.4
 _ZN4CVC413ArrayStoreAllD1Ev@Base 1.4
 _ZN4CVC413ArrayStoreAllD2Ev@Base 1.4
 _ZN4CVC413AssertCommand6invokeEPNS_9SmtEngineE@Base 1.4
 _ZN4CVC413AssertCommand8exportToEPNS_11ExprManagerERNS_24ExprManagerMapCollectionE@Base 1.4
 _ZN4CVC413AssertCommandC1ERKNS_4ExprE@Base 1.4
 _ZN4CVC413AssertCommandC2ERKNS_4ExprE@Base 1.4
 _ZN4CVC413AssertCommandD0Ev@Base 1.4
 _ZN4CVC413AssertCommandD1Ev@Base 1.4
 _ZN4CVC413AssertCommandD2Ev@Base 1.4
 _ZN4CVC413BitVectorTypeC1ERKNS_4TypeE@Base 1.4
 _ZN4CVC413BitVectorTypeC2ERKNS_4TypeE@Base 1.4
 _ZN4CVC413BitVectorTypeD0Ev@Base 1.4
 _ZN4CVC413BitVectorTypeD1Ev@Base 1.4
 _ZN4CVC413BitVectorTypeD2Ev@Base 1.4
 _ZN4CVC413Configuration10GIT_COMMITE@Base 1.4
 _ZN4CVC413Configuration10isDebugTagEPKc@Base 1.4
 _ZN4CVC413Configuration10isGitBuildEv@Base 1.4
 _ZN4CVC413Configuration10isTraceTagEPKc@Base 1.4
 _ZN4CVC413Configuration11getCompilerEv@Base 1.4
 _ZN4CVC413Configuration12IS_GIT_BUILDE@Base 1.4
 _ZN4CVC413Configuration12getDebugTagsEv@Base 1.4
 _ZN4CVC413Configuration12getGitCommitEv@Base 1.4
 _ZN4CVC413Configuration12getTraceTagsEv@Base 1.4
 _ZN4CVC413Configuration12isDebugBuildEv@Base 1.4
 _ZN4CVC413Configuration12isProofBuildEv@Base 1.4
 _ZN4CVC413Configuration12licenseIsGplEv@Base 1.4
 _ZN4CVC413Configuration13isReplayBuildEv@Base 1.4
 _ZN4CVC413Configuration14getPackageNameEv@Base 1.4
 _ZN4CVC413Configuration14isBuiltWithAbcEv@Base 1.4
 _ZN4CVC413Configuration14isBuiltWithClnEv@Base 1.4
 _ZN4CVC413Configuration14isBuiltWithGmpEv@Base 1.4
 _ZN4CVC413Configuration14isDumpingBuildEv@Base 1.4
 _ZN4CVC413Configuration14isMuzzledBuildEv@Base 1.4
 _ZN4CVC413Configuration14isTracingBuildEv@Base 1.4
 _ZN4CVC413Configuration15GIT_BRANCH_NAMEE@Base 1.4
 _ZN4CVC413Configuration15getNumDebugTagsEv@Base 1.4
 _ZN4CVC413Configuration15getNumTraceTagsEv@Base 1.4
 _ZN4CVC413Configuration15getSubversionIdEv@Base 1.4
 _ZN4CVC413Configuration15getVersionExtraEv@Base 1.4
 _ZN4CVC413Configuration15getVersionMajorEv@Base 1.4
 _ZN4CVC413Configuration15getVersionMinorEv@Base 1.4
 _ZN4CVC413Configuration15isBuiltWithCuddEv@Base 1.4
 _ZN4CVC413Configuration15isBuiltWithGlpkEv@Base 1.4
 _ZN4CVC413Configuration15isCoverageBuildEv@Base 1.4
 _ZN4CVC413Configuration16getGitBranchNameEv@Base 1.4
 _ZN4CVC413Configuration16getVersionStringEv@Base 1.4
 _ZN4CVC413Configuration16isAssertionBuildEv@Base 1.4
 _ZN4CVC413Configuration16isProfilingBuildEv@Base 1.4
 _ZN4CVC413Configuration17getVersionReleaseEv@Base 1.4
 _ZN4CVC413Configuration17isStatisticsBuildEv@Base 1.4
 _ZN4CVC413Configuration17isSubversionBuildEv@Base 1.4
 _ZN4CVC413Configuration18isCompetitionBuildEv@Base 1.4
 _ZN4CVC413Configuration19IS_SUBVERSION_BUILDE@Base 1.4
 _ZN4CVC413Configuration19SUBVERSION_REVISIONE@Base 1.4
 _ZN4CVC413Configuration19getCompiledDateTimeEv@Base 1.4
 _ZN4CVC413Configuration19hasGitModificationsEv@Base 1.4
 _ZN4CVC413Configuration19isBuiltWithReadlineEv@Base 1.4
 _ZN4CVC413Configuration21GIT_HAS_MODIFICATIONSE@Base 1.4
 _ZN4CVC413Configuration21getSubversionRevisionEv@Base 1.4
 _ZN4CVC413Configuration21isBuiltWithTlsSupportEv@Base 1.4
 _ZN4CVC413Configuration22SUBVERSION_BRANCH_NAMEE@Base 1.4
 _ZN4CVC413Configuration23getSubversionBranchNameEv@Base 1.4
 _ZN4CVC413Configuration26hasSubversionModificationsEv@Base 1.4
 _ZN4CVC413Configuration28SUBVERSION_HAS_MODIFICATIONSE@Base 1.4
 _ZN4CVC413Configuration5aboutEv@Base 1.4
 _ZN4CVC413Configuration7getNameEv@Base 1.4
 _ZN4CVC413Configuration8getGitIdEv@Base 1.4
 _ZN4CVC413NoticeChannelE@Base 1.4
 _ZN4CVC413SubrangeBoundD1Ev@Base 1.4
 _ZN4CVC413SubrangeBoundD2Ev@Base 1.4
 _ZN4CVC414AscriptionTypeC1ENS_4TypeE@Base 1.4
 _ZN4CVC414AscriptionTypeC2ENS_4TypeE@Base 1.4
 _ZN4CVC414CVC4dumpstreamlsERKNS_7CommandE@Base 1.4
 _ZN4CVC414CommandFailureC1ESs@Base 1.4
 _ZN4CVC414CommandFailureC2ESs@Base 1.4
 _ZN4CVC414CommandFailureD0Ev@Base 1.4
 _ZN4CVC414CommandFailureD1Ev@Base 1.4
 _ZN4CVC414CommandFailureD2Ev@Base 1.4
 _ZN4CVC414CommandSuccess10s_instanceE@Base 1.4
 _ZN4CVC414CommandSuccessD0Ev@Base 1.4
 _ZN4CVC414CommandSuccessD1Ev@Base 1.4
 _ZN4CVC414CommandSuccessD2Ev@Base 1.4
 _ZN4CVC414CommentCommand6invokeEPNS_9SmtEngineE@Base 1.4
 _ZN4CVC414CommentCommand8exportToEPNS_11ExprManagerERNS_24ExprManagerMapCollectionE@Base 1.4
 _ZN4CVC414CommentCommandC1ESs@Base 1.4
 _ZN4CVC414CommentCommandC2ESs@Base 1.4
 _ZN4CVC414CommentCommandD0Ev@Base 1.4
 _ZN4CVC414CommentCommandD1Ev@Base 1.4
 _ZN4CVC414CommentCommandD2Ev@Base 1.4
 _ZN4CVC414DumpOutChannelE@Base 1.4
 _ZN4CVC414GetInfoCommand6invokeEPNS_9SmtEngineE@Base 1.4
 _ZN4CVC414GetInfoCommand8exportToEPNS_11ExprManagerERNS_24ExprManagerMapCollectionE@Base 1.4
 _ZN4CVC414GetInfoCommandC1ESs@Base 1.4
 _ZN4CVC414GetInfoCommandC2ESs@Base 1.4
 _ZN4CVC414GetInfoCommandD0Ev@Base 1.4
 _ZN4CVC414GetInfoCommandD1Ev@Base 1.4
 _ZN4CVC414GetInfoCommandD2Ev@Base 1.4
 _ZN4CVC414LogicExceptionD0Ev@Base 1.4
 _ZN4CVC414LogicExceptionD1Ev@Base 1.4
 _ZN4CVC414LogicExceptionD2Ev@Base 1.4
 _ZN4CVC414MessageChannelE@Base 1.4
 _ZN4CVC414ModalExceptionD0Ev@Base 1.4
 _ZN4CVC414ModalExceptionD1Ev@Base 1.4
 _ZN4CVC414ModalExceptionD2Ev@Base 1.4
 _ZN4CVC414ScopeExceptionD0Ev@Base 1.4
 _ZN4CVC414ScopeExceptionD1Ev@Base 1.4
 _ZN4CVC414ScopeExceptionD2Ev@Base 1.4
 _ZN4CVC414SetInfoCommand6invokeEPNS_9SmtEngineE@Base 1.4
 _ZN4CVC414SetInfoCommand8exportToEPNS_11ExprManagerERNS_24ExprManagerMapCollectionE@Base 1.4
 _ZN4CVC414SetInfoCommandC1ESsRKNS_5SExprE@Base 1.4
 _ZN4CVC414SetInfoCommandC2ESsRKNS_5SExprE@Base 1.4
 _ZN4CVC414SetInfoCommandD0Ev@Base 1.4
 _ZN4CVC414SetInfoCommandD1Ev@Base 1.4
 _ZN4CVC414SetInfoCommandD2Ev@Base 1.4
 _ZN4CVC414StatisticsBase10s_regDelimE@Base 1.4
 _ZN4CVC414StatisticsBase9setPrefixERKSs@Base 1.4
 _ZN4CVC414StatisticsBaseC1ERKS0_@Base 1.4
 _ZN4CVC414StatisticsBaseC1Ev@Base 1.4
 _ZN4CVC414StatisticsBaseC2ERKS0_@Base 1.4
 _ZN4CVC414StatisticsBaseC2Ev@Base 1.4
 _ZN4CVC414StatisticsBaseD0Ev@Base 1.4
 _ZN4CVC414StatisticsBaseD1Ev@Base 1.4
 _ZN4CVC414StatisticsBaseD2Ev@Base 1.4
 _ZN4CVC414StatisticsBaseaSERKS0_@Base 1.4
 _ZN4CVC414SubrangeBounds4joinERKS0_S2_@Base 1.4
 _ZN4CVC414WarningChannelE@Base 1.4
 _ZN4CVC414nullCvc4StreamE@Base 1.4
 _ZN4CVC414null_streambuf8overflowEi@Base 1.4
 _ZN4CVC414null_streambufD0Ev@Base 1.4
 _ZN4CVC414null_streambufD1Ev@Base 1.4
 _ZN4CVC414null_streambufD2Ev@Base 1.4
 _ZN4CVC415CardinalityBethC1ERKNS_7IntegerE@Base 1.4
 _ZN4CVC415CardinalityBethC2ERKNS_7IntegerE@Base 1.4
 _ZN4CVC415CheckSatCommand6invokeEPNS_9SmtEngineE@Base 1.4
 _ZN4CVC415CheckSatCommand8exportToEPNS_11ExprManagerERNS_24ExprManagerMapCollectionE@Base 1.4
 _ZN4CVC415CheckSatCommandC1ERKNS_4ExprE@Base 1.4
 _ZN4CVC415CheckSatCommandC1Ev@Base 1.4
 _ZN4CVC415CheckSatCommandC2ERKNS_4ExprE@Base 1.4
 _ZN4CVC415CheckSatCommandC2Ev@Base 1.4
 _ZN4CVC415CheckSatCommandD0Ev@Base 1.4
 _ZN4CVC415CheckSatCommandD1Ev@Base 1.4
 _ZN4CVC415CheckSatCommandD2Ev@Base 1.4
 _ZN4CVC415CommandSequence10addCommandEPNS_7CommandE@Base 1.4
 _ZN4CVC415CommandSequence3endEv@Base 1.4
 _ZN4CVC415CommandSequence5beginEv@Base 1.4
 _ZN4CVC415CommandSequence5clearEv@Base 1.4
 _ZN4CVC415CommandSequence6invokeEPNS_9SmtEngineE@Base 1.4
 _ZN4CVC415CommandSequence6invokeEPNS_9SmtEngineERSo@Base 1.4
 _ZN4CVC415CommandSequence8exportToEPNS_11ExprManagerERNS_24ExprManagerMapCollectionE@Base 1.4
 _ZN4CVC415CommandSequenceC1Ev@Base 1.4
 _ZN4CVC415CommandSequenceC2Ev@Base 1.4
 _ZN4CVC415CommandSequenceD0Ev@Base 1.4
 _ZN4CVC415CommandSequenceD1Ev@Base 1.4
 _ZN4CVC415CommandSequenceD2Ev@Base 1.4
 _ZN4CVC415ConstructorTypeC1ERKNS_4TypeE@Base 1.4
 _ZN4CVC415ConstructorTypeC2ERKNS_4TypeE@Base 1.4
 _ZN4CVC415ConstructorTypeD0Ev@Base 1.4
 _ZN4CVC415ConstructorTypeD1Ev@Base 1.4
 _ZN4CVC415ConstructorTypeD2Ev@Base 1.4
 _ZN4CVC415GetModelCommand6invokeEPNS_9SmtEngineE@Base 1.4
 _ZN4CVC415GetModelCommand8exportToEPNS_11ExprManagerERNS_24ExprManagerMapCollectionE@Base 1.4
 _ZN4CVC415GetModelCommandC1Ev@Base 1.4
 _ZN4CVC415GetModelCommandC2Ev@Base 1.4
 _ZN4CVC415GetModelCommandD0Ev@Base 1.4
 _ZN4CVC415GetModelCommandD1Ev@Base 1.4
 _ZN4CVC415GetModelCommandD2Ev@Base 1.4
 _ZN4CVC415GetProofCommand6invokeEPNS_9SmtEngineE@Base 1.4
 _ZN4CVC415GetProofCommand8exportToEPNS_11ExprManagerERNS_24ExprManagerMapCollectionE@Base 1.4
 _ZN4CVC415GetProofCommandC1Ev@Base 1.4
 _ZN4CVC415GetProofCommandC2Ev@Base 1.4
 _ZN4CVC415GetProofCommandD0Ev@Base 1.4
 _ZN4CVC415GetProofCommandD1Ev@Base 1.4
 _ZN4CVC415GetProofCommandD2Ev@Base 1.4
 _ZN4CVC415GetValueCommand6invokeEPNS_9SmtEngineE@Base 1.4
 _ZN4CVC415GetValueCommand8exportToEPNS_11ExprManagerERNS_24ExprManagerMapCollectionE@Base 1.4
 _ZN4CVC415GetValueCommandC1ENS_4ExprE@Base 1.4
 _ZN4CVC415GetValueCommandC1ERKSt6vectorINS_4ExprESaIS2_EE@Base 1.4
 _ZN4CVC415GetValueCommandC2ENS_4ExprE@Base 1.4
 _ZN4CVC415GetValueCommandC2ERKSt6vectorINS_4ExprESaIS2_EE@Base 1.4
 _ZN4CVC415GetValueCommandD0Ev@Base 1.4
 _ZN4CVC415GetValueCommandD1Ev@Base 1.4
 _ZN4CVC415GetValueCommandD2Ev@Base 1.4
 _ZN4CVC415OptionExceptionC1ERKSs@Base 1.4
 _ZN4CVC415OptionExceptionC2ERKSs@Base 1.4
 _ZN4CVC415OptionExceptionD0Ev@Base 1.4
 _ZN4CVC415OptionExceptionD1Ev@Base 1.4
 _ZN4CVC415OptionExceptionD2Ev@Base 1.4
 _ZN4CVC415SimplifyCommand6invokeEPNS_9SmtEngineE@Base 1.4
 _ZN4CVC415SimplifyCommand8exportToEPNS_11ExprManagerERNS_24ExprManagerMapCollectionE@Base 1.4
 _ZN4CVC415SimplifyCommandC1ENS_4ExprE@Base 1.4
 _ZN4CVC415SimplifyCommandC2ENS_4ExprE@Base 1.4
 _ZN4CVC415SimplifyCommandD0Ev@Base 1.4
 _ZN4CVC415SimplifyCommandD1Ev@Base 1.4
 _ZN4CVC415SimplifyCommandD2Ev@Base 1.4
 _ZN4CVC416GetOptionCommand6invokeEPNS_9SmtEngineE@Base 1.4
 _ZN4CVC416GetOptionCommand8exportToEPNS_11ExprManagerERNS_24ExprManagerMapCollectionE@Base 1.4
 _ZN4CVC416GetOptionCommandC1ESs@Base 1.4
 _ZN4CVC416GetOptionCommandC2ESs@Base 1.4
 _ZN4CVC416GetOptionCommandD0Ev@Base 1.4
 _ZN4CVC416GetOptionCommandD1Ev@Base 1.4
 _ZN4CVC416GetOptionCommandD2Ev@Base 1.4
 _ZN4CVC416SetOptionCommand6invokeEPNS_9SmtEngineE@Base 1.4
 _ZN4CVC416SetOptionCommand8exportToEPNS_11ExprManagerERNS_24ExprManagerMapCollectionE@Base 1.4
 _ZN4CVC416SetOptionCommandC1ESsRKNS_5SExprE@Base 1.4
 _ZN4CVC416SetOptionCommandC2ESsRKNS_5SExprE@Base 1.4
 _ZN4CVC416SetOptionCommandD0Ev@Base 1.4
 _ZN4CVC416SetOptionCommandD1Ev@Base 1.4
 _ZN4CVC416SetOptionCommandD2Ev@Base 1.4
 _ZN4CVC417DefineTypeCommand6invokeEPNS_9SmtEngineE@Base 1.4
 _ZN4CVC417DefineTypeCommand8exportToEPNS_11ExprManagerERNS_24ExprManagerMapCollectionE@Base 1.4
 _ZN4CVC417DefineTypeCommandC1ERKSsNS_4TypeE@Base 1.4
 _ZN4CVC417DefineTypeCommandC1ERKSsRKSt6vectorINS_4TypeESaIS4_EES4_@Base 1.4
 _ZN4CVC417DefineTypeCommandC2ERKSsNS_4TypeE@Base 1.4
 _ZN4CVC417DefineTypeCommandC2ERKSsRKSt6vectorINS_4TypeESaIS4_EES4_@Base 1.4
 _ZN4CVC417DefineTypeCommandD0Ev@Base 1.4
 _ZN4CVC417DefineTypeCommandD1Ev@Base 1.4
 _ZN4CVC417DefineTypeCommandD2Ev@Base 1.4
 _ZN4CVC418CommandUnsupportedD0Ev@Base 1.4
 _ZN4CVC418CommandUnsupportedD1Ev@Base 1.4
 _ZN4CVC418CommandUnsupportedD2Ev@Base 1.4
 _ZN4CVC418DeclareTypeCommand6invokeEPNS_9SmtEngineE@Base 1.4
 _ZN4CVC418DeclareTypeCommand8exportToEPNS_11ExprManagerERNS_24ExprManagerMapCollectionE@Base 1.4
 _ZN4CVC418DeclareTypeCommandC1ERKSsmNS_4TypeE@Base 1.4
 _ZN4CVC418DeclareTypeCommandC2ERKSsmNS_4TypeE@Base 1.4
 _ZN4CVC418DeclareTypeCommandD0Ev@Base 1.4
 _ZN4CVC418DeclareTypeCommandD1Ev@Base 1.4
 _ZN4CVC418DeclareTypeCommandD2Ev@Base 1.4
 _ZN4CVC418RewriteRuleCommand6invokeEPNS_9SmtEngineE@Base 1.4
 _ZN4CVC418RewriteRuleCommand8exportToEPNS_11ExprManagerERNS_24ExprManagerMapCollectionE@Base 1.4
 _ZN4CVC418RewriteRuleCommandC1ERKSt6vectorINS_4ExprESaIS2_EES2_S2_@Base 1.4
 _ZN4CVC418RewriteRuleCommandC1ERKSt6vectorINS_4ExprESaIS2_EES6_S2_S2_RKS1_IS4_SaIS4_EE@Base 1.4
 _ZN4CVC418RewriteRuleCommandC2ERKSt6vectorINS_4ExprESaIS2_EES2_S2_@Base 1.4
 _ZN4CVC418RewriteRuleCommandC2ERKSt6vectorINS_4ExprESaIS2_EES6_S2_S2_RKS1_IS4_SaIS4_EE@Base 1.4
 _ZN4CVC418RewriteRuleCommandD0Ev@Base 1.4
 _ZN4CVC418RewriteRuleCommandD1Ev@Base 1.4
 _ZN4CVC418RewriteRuleCommandD2Ev@Base 1.4
 _ZN4CVC419CommandPrintSuccess10s_iosIndexE@Base 1.4
 _ZN4CVC419DatatypeConstructor24doParametricSubstitutionENS_4TypeERKSt6vectorINS_19SortConstructorTypeESaIS3_EERKS2_INS_12DatatypeTypeESaIS8_EE@Base 1.4
 _ZN4CVC419DatatypeConstructor6addArgESsNS_16DatatypeSelfTypeE@Base 1.4
 _ZN4CVC419DatatypeConstructor6addArgESsNS_22DatatypeUnresolvedTypeE@Base 1.4
 _ZN4CVC419DatatypeConstructor6addArgESsNS_4TypeE@Base 1.4
 _ZN4CVC419DatatypeConstructor7resolveEPNS_11ExprManagerENS_12DatatypeTypeERKSt3mapISsS3_St4lessISsESaISt4pairIKSsS3_EEERKSt6vectorINS_4TypeESaISF_EESJ_RKSE_INS_19SortConstructorTypeESaISK_EERKSE_IS3_SaIS3_EEm@Base 1.4
 _ZN4CVC419DatatypeConstructorC1ERKS0_@Base 1.4
 _ZN4CVC419DatatypeConstructorC1ESs@Base 1.4
 _ZN4CVC419DatatypeConstructorC1ESsSs@Base 1.4
 _ZN4CVC419DatatypeConstructorC2ERKS0_@Base 1.4
 _ZN4CVC419DatatypeConstructorC2ESs@Base 1.4
 _ZN4CVC419DatatypeConstructorC2ESsSs@Base 1.4
 _ZN4CVC419DatatypeConstructorD1Ev@Base 1.4
 _ZN4CVC419DatatypeConstructorD2Ev@Base 1.4
 _ZN4CVC419GetUnsatCoreCommand6invokeEPNS_9SmtEngineE@Base 1.4
 _ZN4CVC419GetUnsatCoreCommand8exportToEPNS_11ExprManagerERNS_24ExprManagerMapCollectionE@Base 1.4
 _ZN4CVC419GetUnsatCoreCommandC1Ev@Base 1.4
 _ZN4CVC419GetUnsatCoreCommandC2Ev@Base 1.4
 _ZN4CVC419GetUnsatCoreCommandD0Ev@Base 1.4
 _ZN4CVC419GetUnsatCoreCommandD1Ev@Base 1.4
 _ZN4CVC419GetUnsatCoreCommandD2Ev@Base 1.4
 _ZN4CVC419SortConstructorTypeC1ERKNS_4TypeE@Base 1.4
 _ZN4CVC419SortConstructorTypeC2ERKNS_4TypeE@Base 1.4
 _ZN4CVC419SortConstructorTypeD0Ev@Base 1.4
 _ZN4CVC419SortConstructorTypeD1Ev@Base 1.4
 _ZN4CVC419SortConstructorTypeD2Ev@Base 1.4
 _ZN4CVC420GetAssertionsCommand6invokeEPNS_9SmtEngineE@Base 1.4
 _ZN4CVC420GetAssertionsCommand8exportToEPNS_11ExprManagerERNS_24ExprManagerMapCollectionE@Base 1.4
 _ZN4CVC420GetAssertionsCommandC1Ev@Base 1.4
 _ZN4CVC420GetAssertionsCommandC2Ev@Base 1.4
 _ZN4CVC420GetAssertionsCommandD0Ev@Base 1.4
 _ZN4CVC420GetAssertionsCommandD1Ev@Base 1.4
 _ZN4CVC420GetAssertionsCommandD2Ev@Base 1.4
 _ZN4CVC420GetAssignmentCommand6invokeEPNS_9SmtEngineE@Base 1.4
 _ZN4CVC420GetAssignmentCommand8exportToEPNS_11ExprManagerERNS_24ExprManagerMapCollectionE@Base 1.4
 _ZN4CVC420GetAssignmentCommandC1Ev@Base 1.4
 _ZN4CVC420GetAssignmentCommandC2Ev@Base 1.4
 _ZN4CVC420GetAssignmentCommandD0Ev@Base 1.4
 _ZN4CVC420GetAssignmentCommandD1Ev@Base 1.4
 _ZN4CVC420GetAssignmentCommandD2Ev@Base 1.4
 _ZN4CVC420PropagateRuleCommand6invokeEPNS_9SmtEngineE@Base 1.4
 _ZN4CVC420PropagateRuleCommand8exportToEPNS_11ExprManagerERNS_24ExprManagerMapCollectionE@Base 1.4
 _ZN4CVC420PropagateRuleCommandC1ERKSt6vectorINS_4ExprESaIS2_EES6_S2_b@Base 1.4
 _ZN4CVC420PropagateRuleCommandC1ERKSt6vectorINS_4ExprESaIS2_EES6_S6_S2_RKS1_IS4_SaIS4_EEb@Base 1.4
 _ZN4CVC420PropagateRuleCommandC2ERKSt6vectorINS_4ExprESaIS2_EES6_S2_b@Base 1.4
 _ZN4CVC420PropagateRuleCommandC2ERKSt6vectorINS_4ExprESaIS2_EES6_S6_S2_RKS1_IS4_SaIS4_EEb@Base 1.4
 _ZN4CVC420PropagateRuleCommandD0Ev@Base 1.4
 _ZN4CVC420PropagateRuleCommandD1Ev@Base 1.4
 _ZN4CVC420PropagateRuleCommandD2Ev@Base 1.4
 _ZN4CVC421DefineFunctionCommand6invokeEPNS_9SmtEngineE@Base 1.4
 _ZN4CVC421DefineFunctionCommand8exportToEPNS_11ExprManagerERNS_24ExprManagerMapCollectionE@Base 1.4
 _ZN4CVC421DefineFunctionCommandC1ERKSsNS_4ExprERKSt6vectorIS3_SaIS3_EES3_@Base 1.4
 _ZN4CVC421DefineFunctionCommandC1ERKSsNS_4ExprES3_@Base 1.4
 _ZN4CVC421DefineFunctionCommandC2ERKSsNS_4ExprERKSt6vectorIS3_SaIS3_EES3_@Base 1.4
 _ZN4CVC421DefineFunctionCommandC2ERKSsNS_4ExprES3_@Base 1.4
 _ZN4CVC421DefineFunctionCommandD0Ev@Base 1.4
 _ZN4CVC421DefineFunctionCommandD1Ev@Base 1.4
 _ZN4CVC421DefineFunctionCommandD2Ev@Base 1.4
 _ZN4CVC421TypeCheckingExceptionC1EPNS_11ExprManagerEPKNS_28TypeCheckingExceptionPrivateE@Base 1.4
 _ZN4CVC421TypeCheckingExceptionC1ERKNS_4ExprESs@Base 1.4
 _ZN4CVC421TypeCheckingExceptionC1ERKS0_@Base 1.4
 _ZN4CVC421TypeCheckingExceptionC2EPNS_11ExprManagerEPKNS_28TypeCheckingExceptionPrivateE@Base 1.4
 _ZN4CVC421TypeCheckingExceptionC2ERKNS_4ExprESs@Base 1.4
 _ZN4CVC421TypeCheckingExceptionC2ERKS0_@Base 1.4
 _ZN4CVC421TypeCheckingExceptionD0Ev@Base 1.4
 _ZN4CVC421TypeCheckingExceptionD1Ev@Base 1.4
 _ZN4CVC421TypeCheckingExceptionD2Ev@Base 1.4
 _ZN4CVC422DatatypeConstructorArgC1ERKS0_@Base 1.4
 _ZN4CVC422DatatypeConstructorArgC1ESsNS_4ExprE@Base 1.4
 _ZN4CVC422DatatypeConstructorArgC2ERKS0_@Base 1.4
 _ZN4CVC422DatatypeConstructorArgC2ESsNS_4ExprE@Base 1.4
 _ZN4CVC422DatatypeConstructorArgD1Ev@Base 1.4
 _ZN4CVC422DatatypeConstructorArgD2Ev@Base 1.4
 _ZN4CVC422DeclareFunctionCommand15setPrintInModelEb@Base 1.4
 _ZN4CVC422DeclareFunctionCommand6invokeEPNS_9SmtEngineE@Base 1.4
 _ZN4CVC422DeclareFunctionCommand8exportToEPNS_11ExprManagerERNS_24ExprManagerMapCollectionE@Base 1.4
 _ZN4CVC422DeclareFunctionCommandC1ERKSsNS_4ExprENS_4TypeE@Base 1.4
 _ZN4CVC422DeclareFunctionCommandC2ERKSsNS_4ExprENS_4TypeE@Base 1.4
 _ZN4CVC422DeclareFunctionCommandD0Ev@Base 1.4
 _ZN4CVC422DeclareFunctionCommandD1Ev@Base 1.4
 _ZN4CVC422DeclareFunctionCommandD2Ev@Base 1.4
 _ZN4CVC423SetUserAttributeCommand6invokeEPNS_9SmtEngineE@Base 1.4
 _ZN4CVC423SetUserAttributeCommand8exportToEPNS_11ExprManagerERNS_24ExprManagerMapCollectionE@Base 1.4
 _ZN4CVC423SetUserAttributeCommandC1ERKSsNS_4ExprE@Base 1.4
 _ZN4CVC423SetUserAttributeCommandC2ERKSsNS_4ExprE@Base 1.4
 _ZN4CVC423SetUserAttributeCommandD0Ev@Base 1.4
 _ZN4CVC423SetUserAttributeCommandD1Ev@Base 1.4
 _ZN4CVC423SetUserAttributeCommandD2Ev@Base 1.4
 _ZN4CVC424ExpandDefinitionsCommand6invokeEPNS_9SmtEngineE@Base 1.4
 _ZN4CVC424ExpandDefinitionsCommand8exportToEPNS_11ExprManagerERNS_24ExprManagerMapCollectionE@Base 1.4
 _ZN4CVC424ExpandDefinitionsCommandC1ENS_4ExprE@Base 1.4
 _ZN4CVC424ExpandDefinitionsCommandC2ENS_4ExprE@Base 1.4
 _ZN4CVC424ExpandDefinitionsCommandD0Ev@Base 1.4
 _ZN4CVC424ExpandDefinitionsCommandD1Ev@Base 1.4
 _ZN4CVC424ExpandDefinitionsCommandD2Ev@Base 1.4
 _ZN4CVC424GetInstantiationsCommand6invokeEPNS_9SmtEngineE@Base 1.4
 _ZN4CVC424GetInstantiationsCommand8exportToEPNS_11ExprManagerERNS_24ExprManagerMapCollectionE@Base 1.4
 _ZN4CVC424GetInstantiationsCommandC1Ev@Base 1.4
 _ZN4CVC424GetInstantiationsCommandC2Ev@Base 1.4
 _ZN4CVC424GetInstantiationsCommandD0Ev@Base 1.4
 _ZN4CVC424GetInstantiationsCommandD1Ev@Base 1.4
 _ZN4CVC424GetInstantiationsCommandD2Ev@Base 1.4
 _ZN4CVC424IllegalArgumentException9constructEPKcS2_S2_@Base 1.4
 _ZN4CVC424IllegalArgumentException9constructEPKcS2_S2_S2_P13__va_list_tag@Base 1.4
 _ZN4CVC424IllegalArgumentExceptionC1EPKcS2_S2_@Base 1.4
 _ZN4CVC424IllegalArgumentExceptionC1EPKcS2_S2_S2_z@Base 1.4
 _ZN4CVC424IllegalArgumentExceptionC2EPKcS2_S2_@Base 1.4
 _ZN4CVC424IllegalArgumentExceptionC2EPKcS2_S2_S2_z@Base 1.4
 _ZN4CVC424IllegalArgumentExceptionD0Ev@Base 1.4
 _ZN4CVC424IllegalArgumentExceptionD1Ev@Base 1.4
 _ZN4CVC424IllegalArgumentExceptionD2Ev@Base 1.4
 _ZN4CVC424SetBenchmarkLogicCommand6invokeEPNS_9SmtEngineE@Base 1.4
 _ZN4CVC424SetBenchmarkLogicCommand8exportToEPNS_11ExprManagerERNS_24ExprManagerMapCollectionE@Base 1.4
 _ZN4CVC424SetBenchmarkLogicCommandC1ESs@Base 1.4
 _ZN4CVC424SetBenchmarkLogicCommandC2ESs@Base 1.4
 _ZN4CVC424SetBenchmarkLogicCommandD0Ev@Base 1.4
 _ZN4CVC424SetBenchmarkLogicCommandD1Ev@Base 1.4
 _ZN4CVC424SetBenchmarkLogicCommandD2Ev@Base 1.4
 _ZN4CVC425SetBenchmarkStatusCommand6invokeEPNS_9SmtEngineE@Base 1.4
 _ZN4CVC425SetBenchmarkStatusCommand8exportToEPNS_11ExprManagerERNS_24ExprManagerMapCollectionE@Base 1.4
 _ZN4CVC425SetBenchmarkStatusCommandC1ENS_15BenchmarkStatusE@Base 1.4
 _ZN4CVC425SetBenchmarkStatusCommandC2ENS_15BenchmarkStatusE@Base 1.4
 _ZN4CVC425SetBenchmarkStatusCommandD0Ev@Base 1.4
 _ZN4CVC425SetBenchmarkStatusCommandD1Ev@Base 1.4
 _ZN4CVC425SetBenchmarkStatusCommandD2Ev@Base 1.4
 _ZN4CVC426DatatypeDeclarationCommand6invokeEPNS_9SmtEngineE@Base 1.4
 _ZN4CVC426DatatypeDeclarationCommand8exportToEPNS_11ExprManagerERNS_24ExprManagerMapCollectionE@Base 1.4
 _ZN4CVC426DatatypeDeclarationCommandC1ERKNS_12DatatypeTypeE@Base 1.4
 _ZN4CVC426DatatypeDeclarationCommandC1ERKSt6vectorINS_12DatatypeTypeESaIS2_EE@Base 1.4
 _ZN4CVC426DatatypeDeclarationCommandC2ERKNS_12DatatypeTypeE@Base 1.4
 _ZN4CVC426DatatypeDeclarationCommandC2ERKSt6vectorINS_12DatatypeTypeESaIS2_EE@Base 1.4
 _ZN4CVC426DatatypeDeclarationCommandD0Ev@Base 1.4
 _ZN4CVC426DatatypeDeclarationCommandD1Ev@Base 1.4
 _ZN4CVC426DatatypeDeclarationCommandD2Ev@Base 1.4
 _ZN4CVC426DefineNamedFunctionCommand6invokeEPNS_9SmtEngineE@Base 1.4
 _ZN4CVC426DefineNamedFunctionCommand8exportToEPNS_11ExprManagerERNS_24ExprManagerMapCollectionE@Base 1.4
 _ZN4CVC426DefineNamedFunctionCommandC1ERKSsNS_4ExprERKSt6vectorIS3_SaIS3_EES3_@Base 1.4
 _ZN4CVC426DefineNamedFunctionCommandC2ERKSsNS_4ExprERKSt6vectorIS3_SaIS3_EES3_@Base 1.4
 _ZN4CVC426DefineNamedFunctionCommandD0Ev@Base 1.4
 _ZN4CVC426DefineNamedFunctionCommandD1Ev@Base 1.4
 _ZN4CVC426DefineNamedFunctionCommandD2Ev@Base 1.4
 _ZN4CVC426ExportUnsupportedExceptionD0Ev@Base 1.4
 _ZN4CVC426ExportUnsupportedExceptionD1Ev@Base 1.4
 _ZN4CVC426ExportUnsupportedExceptionD2Ev@Base 1.4
 _ZN4CVC427DatatypeResolutionExceptionD0Ev@Base 1.4
 _ZN4CVC427DatatypeResolutionExceptionD1Ev@Base 1.4
 _ZN4CVC427DatatypeResolutionExceptionD2Ev@Base 1.4
 _ZN4CVC427RationalFromDoubleExceptionC1Ed@Base 1.4
 _ZN4CVC427RationalFromDoubleExceptionC2Ed@Base 1.4
 _ZN4CVC427RationalFromDoubleExceptionD0Ev@Base 1.4
 _ZN4CVC427RationalFromDoubleExceptionD1Ev@Base 1.4
 _ZN4CVC427RationalFromDoubleExceptionD2Ev@Base 1.4
 _ZN4CVC427UnrecognizedOptionExceptionC1ERKSs@Base 1.4
 _ZN4CVC427UnrecognizedOptionExceptionC1Ev@Base 1.4
 _ZN4CVC427UnrecognizedOptionExceptionC2ERKSs@Base 1.4
 _ZN4CVC427UnrecognizedOptionExceptionC2Ev@Base 1.4
 _ZN4CVC427UnrecognizedOptionExceptionD0Ev@Base 1.4
 _ZN4CVC427UnrecognizedOptionExceptionD1Ev@Base 1.4
 _ZN4CVC427UnrecognizedOptionExceptionD2Ev@Base 1.4
 _ZN4CVC428DeclarationDefinitionCommandC1ERKSs@Base 1.4
 _ZN4CVC428DeclarationDefinitionCommandC2ERKSs@Base 1.4
 _ZN4CVC428DeclarationDefinitionCommandD0Ev@Base 1.4
 _ZN4CVC428DeclarationDefinitionCommandD1Ev@Base 1.4
 _ZN4CVC428DeclarationDefinitionCommandD2Ev@Base 1.4
 _ZN4CVC44Expr10debugPrintEv@Base 1.4
 _ZN4CVC44Expr14const_iteratorC1EPNS_11ExprManagerEPv@Base 1.4
 _ZN4CVC44Expr14const_iteratorC1ERKS1_@Base 1.4
 _ZN4CVC44Expr14const_iteratorC1Ev@Base 1.4
 _ZN4CVC44Expr14const_iteratorC2EPNS_11ExprManagerEPv@Base 1.4
 _ZN4CVC44Expr14const_iteratorC2ERKS1_@Base 1.4
 _ZN4CVC44Expr14const_iteratorC2Ev@Base 1.4
 _ZN4CVC44Expr14const_iteratorD1Ev@Base 1.4
 _ZN4CVC44Expr14const_iteratorD2Ev@Base 1.4
 _ZN4CVC44Expr14const_iteratoraSERKS1_@Base 1.4
 _ZN4CVC44Expr14const_iteratorppEi@Base 1.4
 _ZN4CVC44Expr14const_iteratorppEv@Base 1.4
 _ZN4CVC44ExprC1EPNS_11ExprManagerEPNS_12NodeTemplateILb1EEE@Base 1.4
 _ZN4CVC44ExprC1ERKS0_@Base 1.4
 _ZN4CVC44ExprC1Ev@Base 1.4
 _ZN4CVC44ExprC2EPNS_11ExprManagerEPNS_12NodeTemplateILb1EEE@Base 1.4
 _ZN4CVC44ExprC2ERKS0_@Base 1.4
 _ZN4CVC44ExprC2Ev@Base 1.4
 _ZN4CVC44ExprD1Ev@Base 1.4
 _ZN4CVC44ExprD2Ev@Base 1.4
 _ZN4CVC44ExpraSERKS0_@Base 1.4
 _ZN4CVC44TypeC1EPNS_11NodeManagerEPNS_8TypeNodeE@Base 1.4
 _ZN4CVC44TypeC1ERKS0_@Base 1.4
 _ZN4CVC44TypeC1Ev@Base 1.4
 _ZN4CVC44TypeC2EPNS_11NodeManagerEPNS_8TypeNodeE@Base 1.4
 _ZN4CVC44TypeC2ERKS0_@Base 1.4
 _ZN4CVC44TypeC2Ev@Base 1.4
 _ZN4CVC44TypeD0Ev@Base 1.4
 _ZN4CVC44TypeD1Ev@Base 1.4
 _ZN4CVC44TypeD2Ev@Base 1.4
 _ZN4CVC44TypeaSERKS0_@Base 1.4
 _ZN4CVC44expr12ExprSetDepth10s_iosIndexE@Base 1.4
 _ZN4CVC44expr14ExprPrintTypes10s_iosIndexE@Base 1.4
 _ZN4CVC44expr15ExprSetLanguage10s_iosIndexE@Base 1.4
 _ZN4CVC44expr15ExprSetLanguage11getLanguageERSo@Base 1.4
 _ZN4CVC44expr15ExprSetLanguage11setLanguageERSoNS_8language6output8LanguageE@Base 1.4
 _ZN4CVC44expr6pickle10MapPicklerD0Ev@Base 1.4
 _ZN4CVC44expr6pickle10MapPicklerD1Ev@Base 1.4
 _ZN4CVC44expr6pickle10MapPicklerD2Ev@Base 1.4
 _ZN4CVC44expr6pickle17PicklingExceptionD0Ev@Base 1.4
 _ZN4CVC44expr6pickle17PicklingExceptionD1Ev@Base 1.4
 _ZN4CVC44expr6pickle17PicklingExceptionD2Ev@Base 1.4
 _ZN4CVC44expr6pickle6PickleC1ERKS2_@Base 1.4
 _ZN4CVC44expr6pickle6PickleC1Ev@Base 1.4
 _ZN4CVC44expr6pickle6PickleC2ERKS2_@Base 1.4
 _ZN4CVC44expr6pickle6PickleC2Ev@Base 1.4
 _ZN4CVC44expr6pickle6PickleD1Ev@Base 1.4
 _ZN4CVC44expr6pickle6PickleD2Ev@Base 1.4
 _ZN4CVC44expr6pickle6PickleaSERKS2_@Base 1.4
 _ZN4CVC44expr6pickle7Pickler10fromPickleERNS1_6PickleE@Base 1.4
 _ZN4CVC44expr6pickle7Pickler15debugPickleTestENS_4ExprE@Base 1.4
 _ZN4CVC44expr6pickle7Pickler8toPickleENS_4ExprERNS1_6PickleE@Base 1.4
 _ZN4CVC44expr6pickle7PicklerC1EPNS_11ExprManagerE@Base 1.4
 _ZN4CVC44expr6pickle7PicklerC2EPNS_11ExprManagerE@Base 1.4
 _ZN4CVC44expr6pickle7PicklerD1Ev@Base 1.4
 _ZN4CVC44expr6pickle7PicklerD2Ev@Base 1.4
 _ZN4CVC44expr7ExprDag10s_iosIndexE@Base 1.4
 _ZN4CVC44kindlsERSoNS0_6Kind_tE@Base 1.4
 _ZN4CVC44prop10PropEngineD1Ev@Base 1.4
 _ZN4CVC44prop10PropEngineD2Ev@Base 1.4
 _ZN4CVC45ChatC6printfEPKcz@Base 1.4
 _ZN4CVC45DumpC4isOnEPKc@Base 1.4
 _ZN4CVC45DumpCD1Ev@Base 1.4
 _ZN4CVC45DumpCD2Ev@Base 1.4
 _ZN4CVC45DumpCclEPKc@Base 1.4
 _ZN4CVC45SExprC1EPKc@Base 1.4
 _ZN4CVC45SExprC1ERKNS_12SExprKeywordE@Base 1.4
 _ZN4CVC45SExprC1ERKNS_7IntegerE@Base 1.4
 _ZN4CVC45SExprC1ERKNS_8RationalE@Base 1.4
 _ZN4CVC45SExprC1ERKS0_@Base 1.4
 _ZN4CVC45SExprC1ERKSs@Base 1.4
 _ZN4CVC45SExprC1ERKSt6vectorIS0_SaIS0_EE@Base 1.4
 _ZN4CVC45SExprC1Ei@Base 1.4
 _ZN4CVC45SExprC1Ej@Base 1.4
 _ZN4CVC45SExprC1Em@Base 1.4
 _ZN4CVC45SExprC2EPKc@Base 1.4
 _ZN4CVC45SExprC2ERKNS_12SExprKeywordE@Base 1.4
 _ZN4CVC45SExprC2ERKNS_7IntegerE@Base 1.4
 _ZN4CVC45SExprC2ERKNS_8RationalE@Base 1.4
 _ZN4CVC45SExprC2ERKS0_@Base 1.4
 _ZN4CVC45SExprC2ERKSs@Base 1.4
 _ZN4CVC45SExprC2ERKSt6vectorIS0_SaIS0_EE@Base 1.4
 _ZN4CVC45SExprC2Ei@Base 1.4
 _ZN4CVC45SExprC2Ej@Base 1.4
 _ZN4CVC45SExprC2Em@Base 1.4
 _ZN4CVC45SExprD1Ev@Base 1.4
 _ZN4CVC45SExprD2Ev@Base 1.4
 _ZN4CVC45SExpraSERKS0_@Base 1.4
 _ZN4CVC46DebugCD1Ev@Base 1.4
 _ZN4CVC46DebugCD2Ev@Base 1.4
 _ZN4CVC46ResultC1ENS0_3SatESs@Base 1.4
 _ZN4CVC46ResultC1ENS0_8ValidityENS0_18UnknownExplanationESs@Base 1.4
 _ZN4CVC46ResultC1ERKSsSs@Base 1.4
 _ZN4CVC46ResultC2ENS0_3SatESs@Base 1.4
 _ZN4CVC46ResultC2ENS0_8ValidityENS0_18UnknownExplanationESs@Base 1.4
 _ZN4CVC46ResultC2ERKSsSs@Base 1.4
 _ZN4CVC46String10toInternalERKSs@Base 1.4
 _ZN4CVC46StringC1EPKc@Base 1.4
 _ZN4CVC46StringC2EPKc@Base 1.4
 _ZN4CVC46TraceCD1Ev@Base 1.4
 _ZN4CVC46TraceCD2Ev@Base 1.4
 _ZN4CVC46theorylsERSoNS0_12TheoryOfModeE@Base 1.4
 _ZN4CVC47Command6invokeEPNS_9SmtEngineERSo@Base 1.4
 _ZN4CVC47CommandC1ERKS0_@Base 1.4
 _ZN4CVC47CommandC1Ev@Base 1.4
 _ZN4CVC47CommandC2ERKS0_@Base 1.4
 _ZN4CVC47CommandC2Ev@Base 1.4
 _ZN4CVC47CommandD0Ev@Base 1.4
 _ZN4CVC47CommandD1Ev@Base 1.4
 _ZN4CVC47CommandD2Ev@Base 1.4
 _ZN4CVC47IntegerC1EPKcj@Base 1.4
 _ZN4CVC47IntegerC1ERKSsj@Base 1.4
 _ZN4CVC47IntegerC2EPKcj@Base 1.4
 _ZN4CVC47IntegerC2ERKSsj@Base 1.4
 _ZN4CVC47IntegerD1Ev@Base 1.4
 _ZN4CVC47IntegerD2Ev@Base 1.4
 _ZN4CVC47NoticeC6printfEPKcz@Base 1.4
 _ZN4CVC47Options10assignBoolINS_7options14cbqi__option_tEEEvT_SsbPNS_9SmtEngineE@Base 1.4
 _ZN4CVC47Options10assignBoolINS_7options14help__option_tEEEvT_SsbPNS_9SmtEngineE@Base 1.4
 _ZN4CVC47Options10assignBoolINS_7options15proof__option_tEEEvT_SsbPNS_9SmtEngineE@Base 1.4
 _ZN4CVC47Options10assignBoolINS_7options15useFC__option_tEEEvT_SsbPNS_9SmtEngineE@Base 1.4
 _ZN4CVC47Options10assignBoolINS_7options16useSOI__option_tEEEvT_SsbPNS_9SmtEngineE@Base 1.4
 _ZN4CVC47Options10assignBoolINS_7options17newProp__option_tEEEvT_SsbPNS_9SmtEngineE@Base 1.4
 _ZN4CVC47Options10assignBoolINS_7options17version__option_tEEEvT_SsbPNS_9SmtEngineE@Base 1.4
 _ZN4CVC47Options10assignBoolINS_7options18cnfQuant__option_tEEEvT_SsbPNS_9SmtEngineE@Base 1.4
 _ZN4CVC47Options10assignBoolINS_7options18nnfQuant__option_tEEEvT_SsbPNS_9SmtEngineE@Base 1.4
 _ZN4CVC47Options10assignBoolINS_7options18segvSpin__option_tEEEvT_SsbPNS_9SmtEngineE@Base 1.4
 _ZN4CVC47Options10assignBoolINS_7options19dioRepeat__option_tEEEvT_SsbPNS_9SmtEngineE@Base 1.4
 _ZN4CVC47Options10assignBoolINS_7options19doITESimp__option_tEEEvT_SsbPNS_9SmtEngineE@Base 1.4
 _ZN4CVC47Options10assignBoolINS_7options19earlyExit__option_tEEEvT_SsbPNS_9SmtEngineE@Base 1.4
 _ZN4CVC47Options10assignBoolINS_7options19memoryMap__option_tEEEvT_SsbPNS_9SmtEngineE@Base 1.4
 _ZN4CVC47Options10assignBoolINS_7options19parseOnly__option_tEEEvT_SsbPNS_9SmtEngineE@Base 1.4
 _ZN4CVC47Options10assignBoolINS_7options19stringEIT__option_tEEEvT_SsbPNS_9SmtEngineE@Base 1.4
 _ZN4CVC47Options10assignBoolINS_7options19stringExp__option_tEEEvT_SsbPNS_9SmtEngineE@Base 1.4
 _ZN4CVC47Options10assignBoolINS_7options19stringFMF__option_tEEEvT_SsbPNS_9SmtEngineE@Base 1.4
 _ZN4CVC47Options10assignBoolINS_7options19useApprox__option_tEEEvT_SsbPNS_9SmtEngineE@Base 1.4
 _ZN4CVC47Options10assignBoolINS_7options20dumpModels__option_tEEEvT_SsbPNS_9SmtEngineE@Base 1.4
 _ZN4CVC47Options10assignBoolINS_7options20dumpProofs__option_tEEEvT_SsbPNS_9SmtEngineE@Base 1.4
 _ZN4CVC47Options10assignBoolINS_7options20fmfInstGen__option_tEEEvT_SsbPNS_9SmtEngineE@Base 1.4
 _ZN4CVC47Options10assignBoolINS_7options20pbRewrites__option_tEEEvT_SsbPNS_9SmtEngineE@Base 1.4
 _ZN4CVC47Options10assignBoolINS_7options20repeatSimp__option_tEEEvT_SsbPNS_9SmtEngineE@Base 1.4
 _ZN4CVC47Options10assignBoolINS_7options20statistics__option_tEEEvT_SsbPNS_9SmtEngineE@Base 1.4
 _ZN4CVC47Options10assignBoolINS_7options20stringOpt1__option_tEEEvT_SsbPNS_9SmtEngineE@Base 1.4
 _ZN4CVC47Options10assignBoolINS_7options20stringOpt2__option_tEEEvT_SsbPNS_9SmtEngineE@Base 1.4
 _ZN4CVC47Options10assignBoolINS_7options20unsatCores__option_tEEEvT_SsbPNS_9SmtEngineE@Base 1.4
 _ZN4CVC47Options10assignBoolINS_7options20waitToJoin__option_tEEEvT_SsbPNS_9SmtEngineE@Base 1.4
 _ZN4CVC47Options10assignBoolINS_7options21checkModels__option_tEEEvT_SsbPNS_9SmtEngineE@Base 1.4
 _ZN4CVC47Options10assignBoolINS_7options21checkProofs__option_tEEEvT_SsbPNS_9SmtEngineE@Base 1.4
 _ZN4CVC47Options10assignBoolINS_7options21clauseSplit__option_tEEEvT_SsbPNS_9SmtEngineE@Base 1.4
 _ZN4CVC47Options10assignBoolINS_7options21fmfBoundInt__option_tEEEvT_SsbPNS_9SmtEngineE@Base 1.4
 _ZN4CVC47Options10assignBoolINS_7options21foPropQuant__option_tEEEvT_SsbPNS_9SmtEngineE@Base 1.4
 _ZN4CVC47Options10assignBoolINS_7options21interactive__option_tEEEvT_SsbPNS_9SmtEngineE@Base 1.4
 _ZN4CVC47Options10assignBoolINS_7options21macrosQuant__option_tEEEvT_SsbPNS_9SmtEngineE@Base 1.4
 _ZN4CVC47Options10assignBoolINS_7options21prenexQuant__option_tEEEvT_SsbPNS_9SmtEngineE@Base 1.4
 _ZN4CVC47Options10assignBoolINS_7options21recurseCbqi__option_tEEEvT_SsbPNS_9SmtEngineE@Base 1.4
 _ZN4CVC47Options10assignBoolINS_7options21rewriteDivk__option_tEEEvT_SsbPNS_9SmtEngineE@Base 1.4
 _ZN4CVC47Options10assignBoolINS_7options21ufssRegions__option_tEEEvT_SsbPNS_9SmtEngineE@Base 1.4
 _ZN4CVC47Options10assignBoolINS_7options22arithMLTrick__option_tEEEvT_SsbPNS_9SmtEngineE@Base 1.4
 _ZN4CVC47Options10assignBoolINS_7options22bitvectorAig__option_tEEEvT_SsbPNS_9SmtEngineE@Base 1.4
 _ZN4CVC47Options10assignBoolINS_7options22compressItes__option_tEEEvT_SsbPNS_9SmtEngineE@Base 1.4
 _ZN4CVC47Options10assignBoolINS_7options22flipDecision__option_tEEEvT_SsbPNS_9SmtEngineE@Base 1.4
 _ZN4CVC47Options10assignBoolINS_7options22fmfFmcSimple__option_tEEEvT_SsbPNS_9SmtEngineE@Base 1.4
 _ZN4CVC47Options10assignBoolINS_7options22idlRewriteEq__option_tEEEvT_SsbPNS_9SmtEngineE@Base 1.4
 _ZN4CVC47Options10assignBoolINS_7options22internalReps__option_tEEEvT_SsbPNS_9SmtEngineE@Base 1.4
 _ZN4CVC47Options10assignBoolINS_7options22languageHelp__option_tEEEvT_SsbPNS_9SmtEngineE@Base 1.4
 _ZN4CVC47Options10assignBoolINS_7options22printSuccess__option_tEEEvT_SsbPNS_9SmtEngineE@Base 1.4
 _ZN4CVC47Options10assignBoolINS_7options22typeChecking__option_tEEEvT_SsbPNS_9SmtEngineE@Base 1.4
 _ZN4CVC47Options10assignBoolINS_7options22ufssFairness__option_tEEEvT_SsbPNS_9SmtEngineE@Base 1.4
 _ZN4CVC47Options10assignBoolINS_7options22ufssSymBreak__option_tEEEvT_SsbPNS_9SmtEngineE@Base 1.4
 _ZN4CVC47Options10assignBoolINS_7options22ufssTotality__option_tEEEvT_SsbPNS_9SmtEngineE@Base 1.4
 _ZN4CVC47Options10assignBoolINS_7options22varElimQuant__option_tEEEvT_SsbPNS_9SmtEngineE@Base 1.4
 _ZN4CVC47Options10assignBoolINS_7options23bvAbstraction__option_tEEEvT_SsbPNS_9SmtEngineE@Base 1.4
 _ZN4CVC47Options10assignBoolINS_7options23collectPivots__option_tEEEvT_SsbPNS_9SmtEngineE@Base 1.4
 _ZN4CVC47Options10assignBoolINS_7options23fmfInstEngine__option_tEEEvT_SsbPNS_9SmtEngineE@Base 1.4
 _ZN4CVC47Options10assignBoolINS_7options23havePenalties__option_tEEEvT_SsbPNS_9SmtEngineE@Base 1.4
 _ZN4CVC47Options10assignBoolINS_7options23produceModels__option_tEEEvT_SsbPNS_9SmtEngineE@Base 1.4
 _ZN4CVC47Options10assignBoolINS_7options23setsPropagate__option_tEEEvT_SsbPNS_9SmtEngineE@Base 1.4
 _ZN4CVC47Options10assignBoolINS_7options23smartTriggers__option_tEEEvT_SsbPNS_9SmtEngineE@Base 1.4
 _ZN4CVC47Options10assignBoolINS_7options23sortInference__option_tEEEvT_SsbPNS_9SmtEngineE@Base 1.4
 _ZN4CVC47Options10assignBoolINS_7options23strictParsing__option_tEEEvT_SsbPNS_9SmtEngineE@Base 1.4
 _ZN4CVC47Options10assignBoolINS_7options24abstractValues__option_tEEEvT_SsbPNS_9SmtEngineE@Base 1.4
 _ZN4CVC47Options10assignBoolINS_7options24arithDioSolver__option_tEEEvT_SsbPNS_9SmtEngineE@Base 1.4
 _ZN4CVC47Options10assignBoolINS_7options24arithRewriteEq__option_tEEEvT_SsbPNS_9SmtEngineE@Base 1.4
 _ZN4CVC47Options10assignBoolINS_7options24dtStcInduction__option_tEEEvT_SsbPNS_9SmtEngineE@Base 1.4
 _ZN4CVC47Options10assignBoolINS_7options24eagerInstQuant__option_tEEEvT_SsbPNS_9SmtEngineE@Base 1.4
 _ZN4CVC47Options10assignBoolINS_7options24minisatUseElim__option_tEEEvT_SsbPNS_9SmtEngineE@Base 1.4
 _ZN4CVC47Options10assignBoolINS_7options24miniscopeQuant__option_tEEEvT_SsbPNS_9SmtEngineE@Base 1.4
 _ZN4CVC47Options10assignBoolINS_7options24preSkolemQuant__option_tEEEvT_SsbPNS_9SmtEngineE@Base 1.4
 _ZN4CVC47Options10assignBoolINS_7options24preprocessOnly__option_tEEEvT_SsbPNS_9SmtEngineE@Base 1.4
 _ZN4CVC47Options10assignBoolINS_7options24qcfTConstraint__option_tEEEvT_SsbPNS_9SmtEngineE@Base 1.4
 _ZN4CVC47Options10assignBoolINS_7options24semanticChecks__option_tEEEvT_SsbPNS_9SmtEngineE@Base 1.4
 _ZN4CVC47Options10assignBoolINS_7options24statsHideZeros__option_tEEEvT_SsbPNS_9SmtEngineE@Base 1.4
 _ZN4CVC47Options10assignBoolINS_7options25bitvectorToBool__option_tEEEvT_SsbPNS_9SmtEngineE@Base 1.4
 _ZN4CVC47Options10assignBoolINS_7options25bvIntroducePow2__option_tEEEvT_SsbPNS_9SmtEngineE@Base 1.4
 _ZN4CVC47Options10assignBoolINS_7options25doCutAllBounded__option_tEEEvT_SsbPNS_9SmtEngineE@Base 1.4
 _ZN4CVC47Options10assignBoolINS_7options25finiteModelFind__option_tEEEvT_SsbPNS_9SmtEngineE@Base 1.4
 _ZN4CVC47Options10assignBoolINS_7options25fmfBoundIntLazy__option_tEEEvT_SsbPNS_9SmtEngineE@Base 1.4
 _ZN4CVC47Options10assignBoolINS_7options25setsEagerLemmas__option_tEEEvT_SsbPNS_9SmtEngineE@Base 1.4
 _ZN4CVC47Options10assignBoolINS_7options25soiQuickExplain__option_tEEEvT_SsbPNS_9SmtEngineE@Base 1.4
 _ZN4CVC47Options10assignBoolINS_7options25statsEveryQuery__option_tEEEvT_SsbPNS_9SmtEngineE@Base 1.4
 _ZN4CVC47Options10assignBoolINS_7options25ufssEagerSplits__option_tEEEvT_SsbPNS_9SmtEngineE@Base 1.4
 _ZN4CVC47Options10assignBoolINS_7options26arraysModelBased__option_tEEEvT_SsbPNS_9SmtEngineE@Base 1.4
 _ZN4CVC47Options10assignBoolINS_7options26biasedITERemoval__option_tEEEvT_SsbPNS_9SmtEngineE@Base 1.4
 _ZN4CVC47Options10assignBoolINS_7options26decisionStopOnly__option_tEEEvT_SsbPNS_9SmtEngineE@Base 1.4
 _ZN4CVC47Options10assignBoolINS_7options26doStaticLearning__option_tEEEvT_SsbPNS_9SmtEngineE@Base 1.4
 _ZN4CVC47Options10assignBoolINS_7options26filesystemAccess__option_tEEEvT_SsbPNS_9SmtEngineE@Base 1.4
 _ZN4CVC47Options10assignBoolINS_7options26relevantTriggers__option_tEEEvT_SsbPNS_9SmtEngineE@Base 1.4
 _ZN4CVC47Options10assignBoolINS_7options26restrictedPivots__option_tEEEvT_SsbPNS_9SmtEngineE@Base 1.4
 _ZN4CVC47Options10assignBoolINS_7options26ufssCliqueSplits__option_tEEEvT_SsbPNS_9SmtEngineE@Base 1.4
 _ZN4CVC47Options10assignBoolINS_7options26ufssMinimalModel__option_tEEEvT_SsbPNS_9SmtEngineE@Base 1.4
 _ZN4CVC47Options10assignBoolINS_7options27arraysEagerLemmas__option_tEEEvT_SsbPNS_9SmtEngineE@Base 1.4
 _ZN4CVC47Options10assignBoolINS_7options27arraysLazyRIntro1__option_tEEEvT_SsbPNS_9SmtEngineE@Base 1.4
 _ZN4CVC47Options10assignBoolINS_7options27decisionUseWeight__option_tEEEvT_SsbPNS_9SmtEngineE@Base 1.4
 _ZN4CVC47Options10assignBoolINS_7options27doITESimpOnRepeat__option_tEEEvT_SsbPNS_9SmtEngineE@Base 1.4
 _ZN4CVC47Options10assignBoolINS_7options27dtForceAssignment__option_tEEEvT_SsbPNS_9SmtEngineE@Base 1.4
 _ZN4CVC47Options10assignBoolINS_7options27dtRewriteErrorSel__option_tEEEvT_SsbPNS_9SmtEngineE@Base 1.4
 _ZN4CVC47Options10assignBoolINS_7options27earlyTypeChecking__option_tEEEvT_SsbPNS_9SmtEngineE@Base 1.4
 _ZN4CVC47Options10assignBoolINS_7options27expandDefinitions__option_tEEEvT_SsbPNS_9SmtEngineE@Base 1.4
 _ZN4CVC47Options10assignBoolINS_7options27fmfFreshDistConst__option_tEEEvT_SsbPNS_9SmtEngineE@Base 1.4
 _ZN4CVC47Options10assignBoolINS_7options27fullSaturateQuant__option_tEEEvT_SsbPNS_9SmtEngineE@Base 1.4
 _ZN4CVC47Options10assignBoolINS_7options27interactivePrompt__option_tEEEvT_SsbPNS_9SmtEngineE@Base 1.4
 _ZN4CVC47Options10assignBoolINS_7options27minisatDumpDimacs__option_tEEEvT_SsbPNS_9SmtEngineE@Base 1.4
 _ZN4CVC47Options10assignBoolINS_7options27quantConflictFind__option_tEEEvT_SsbPNS_9SmtEngineE@Base 1.4
 _ZN4CVC47Options10assignBoolINS_7options27quantRewriteRules__option_tEEEvT_SsbPNS_9SmtEngineE@Base 1.4
 _ZN4CVC47Options10assignBoolINS_7options27revertArithModels__option_tEEEvT_SsbPNS_9SmtEngineE@Base 1.4
 _ZN4CVC47Options10assignBoolINS_7options27rrOneInstPerRound__option_tEEEvT_SsbPNS_9SmtEngineE@Base 1.4
 _ZN4CVC47Options10assignBoolINS_7options27ufSymmetryBreaker__option_tEEEvT_SsbPNS_9SmtEngineE@Base 1.4
 _ZN4CVC47Options10assignBoolINS_7options27ufssSimpleCliques__option_tEEEvT_SsbPNS_9SmtEngineE@Base 1.4
 _ZN4CVC47Options10assignBoolINS_7options27unconstrainedSimp__option_tEEEvT_SsbPNS_9SmtEngineE@Base 1.4
 _ZN4CVC47Options10assignBoolINS_7options28bitvectorPropagate__option_tEEEvT_SsbPNS_9SmtEngineE@Base 1.4
 _ZN4CVC47Options10assignBoolINS_7options28continuedExecution__option_tEEEvT_SsbPNS_9SmtEngineE@Base 1.4
 _ZN4CVC47Options10assignBoolINS_7options28dumpInstantiations__option_tEEEvT_SsbPNS_9SmtEngineE@Base 1.4
 _ZN4CVC47Options10assignBoolINS_7options28fallbackSequential__option_tEEEvT_SsbPNS_9SmtEngineE@Base 1.4
 _ZN4CVC47Options10assignBoolINS_7options28fmfOneInstPerRound__option_tEEEvT_SsbPNS_9SmtEngineE@Base 1.4
 _ZN4CVC47Options10assignBoolINS_7options28incrementalSolving__option_tEEEvT_SsbPNS_9SmtEngineE@Base 1.4
 _ZN4CVC47Options10assignBoolINS_7options28produceAssignments__option_tEEEvT_SsbPNS_9SmtEngineE@Base 1.4
 _ZN4CVC47Options10assignBoolINS_7options28relationalTriggers__option_tEEEvT_SsbPNS_9SmtEngineE@Base 1.4
 _ZN4CVC47Options10assignBoolINS_7options28replayFailureLemma__option_tEEEvT_SsbPNS_9SmtEngineE@Base 1.4
 _ZN4CVC47Options10assignBoolINS_7options28simpleIteLiftQuant__option_tEEEvT_SsbPNS_9SmtEngineE@Base 1.4
 _ZN4CVC47Options10assignBoolINS_7options28skolemizeArguments__option_tEEEvT_SsbPNS_9SmtEngineE@Base 1.4
 _ZN4CVC47Options10assignBoolINS_7options29bvEagerExplanations__option_tEEEvT_SsbPNS_9SmtEngineE@Base 1.4
 _ZN4CVC47Options10assignBoolINS_7options29fmfOneQuantPerRound__option_tEEEvT_SsbPNS_9SmtEngineE@Base 1.4
 _ZN4CVC47Options10assignBoolINS_7options29incrementalParallel__option_tEEEvT_SsbPNS_9SmtEngineE@Base 1.4
 _ZN4CVC47Options10assignBoolINS_7options29modelUninterpDtEnum__option_tEEEvT_SsbPNS_9SmtEngineE@Base 1.4
 _ZN4CVC47Options10assignBoolINS_7options29rewriteApplyToConst__option_tEEEvT_SsbPNS_9SmtEngineE@Base 1.4
 _ZN4CVC47Options10assignBoolINS_7options29tearDownIncremental__option_tEEEvT_SsbPNS_9SmtEngineE@Base 1.4
 _ZN4CVC47Options10assignBoolINS_7options30arraysOptimizeLinear__option_tEEEvT_SsbPNS_9SmtEngineE@Base 1.4
 _ZN4CVC47Options10assignBoolINS_7options30bitvectorQuickXplain__option_tEEEvT_SsbPNS_9SmtEngineE@Base 1.4
 _ZN4CVC47Options10assignBoolINS_7options30sat_refine_conflicts__option_tEEEvT_SsbPNS_9SmtEngineE@Base 1.4
 _ZN4CVC47Options10assignBoolINS_7options30ufssDiseqPropagation__option_tEEEvT_SsbPNS_9SmtEngineE@Base 1.4
 _ZN4CVC47Options10assignBoolINS_7options30ufssExplainedCliques__option_tEEEvT_SsbPNS_9SmtEngineE@Base 1.4
 _ZN4CVC47Options10assignBoolINS_7options30ufssTotalitySymBreak__option_tEEEvT_SsbPNS_9SmtEngineE@Base 1.4
 _ZN4CVC47Options10assignBoolINS_7options31miniscopeQuantFreeVar__option_tEEEvT_SsbPNS_9SmtEngineE@Base 1.4
 _ZN4CVC47Options10assignBoolINS_7options32condenseFunctionValues__option_tEEEvT_SsbPNS_9SmtEngineE@Base 1.4
 _ZN4CVC47Options10assignBoolINS_7options32registerQuantBodyTerms__option_tEEEvT_SsbPNS_9SmtEngineE@Base 1.4
 _ZN4CVC47Options10assignBoolINS_7options33bitvectorDivByZeroConst__option_tEEEvT_SsbPNS_9SmtEngineE@Base 1.4
 _ZN4CVC47Options10assignBoolINS_7options33bitvectorEqualitySolver__option_tEEEvT_SsbPNS_9SmtEngineE@Base 1.4
 _ZN4CVC47Options10assignBoolINS_7options33exportDioDecompositions__option_tEEEvT_SsbPNS_9SmtEngineE@Base 1.4
 _ZN4CVC47Options10assignBoolINS_7options33simplifyWithCareEnabled__option_tEEEvT_SsbPNS_9SmtEngineE@Base 1.4
 _ZN4CVC47Options10assignBoolINS_7options34aggressiveMiniscopeQuant__option_tEEEvT_SsbPNS_9SmtEngineE@Base 1.4
 _ZN4CVC47Options10assignBoolINS_7options34bitvectorAlgebraicSolver__option_tEEEvT_SsbPNS_9SmtEngineE@Base 1.4
 _ZN4CVC47Options10assignBoolINS_7options34forceNoLimitCpuWhileDump__option_tEEEvT_SsbPNS_9SmtEngineE@Base 1.4
 _ZN4CVC47Options10assignBoolINS_7options35arraysEagerIndexSplitting__option_tEEEvT_SsbPNS_9SmtEngineE@Base 1.4
 _ZN4CVC47Options10assignBoolINS_7options35bitvectorInequalitySolver__option_tEEEvT_SsbPNS_9SmtEngineE@Base 1.4
 _ZN4CVC47Options10assignBoolINS_7options35trySolveIntStandardEffort__option_tEEEvT_SsbPNS_9SmtEngineE@Base 1.4
 _ZN4CVC47Options10assignBoolINS_7options36fmfInstGenOneQuantPerRound__option_tEEEvT_SsbPNS_9SmtEngineE@Base 1.4
 _ZN4CVC47Options10printUsageESsRSo@Base 1.4
 _ZN4CVC47Options12parseOptionsEiPPc@Base 1.4
 _ZN4CVC47Options15printShortUsageESsRSo@Base 1.4
 _ZN4CVC47Options17printLanguageHelpERSo@Base 1.4
 _ZN4CVC47Options17suggestSmtOptionsERKSs@Base 1.4
 _ZN4CVC47Options25suggestCommandLineOptionsERKSs@Base 1.4
 _ZN4CVC47Options3setINS_7options12in__option_tEEEvT_RKNS4_4typeE@Base 1.4
 _ZN4CVC47Options3setINS_7options13err__option_tEEEvT_RKNS4_4typeE@Base 1.4
 _ZN4CVC47Options3setINS_7options13out__option_tEEEvT_RKNS4_4typeE@Base 1.4
 _ZN4CVC47Options3setINS_7options14cbqi__option_tEEEvT_RKNS4_4typeE@Base 1.4
 _ZN4CVC47Options3setINS_7options15useFC__option_tEEEvT_RKNS4_4typeE@Base 1.4
 _ZN4CVC47Options3setINS_7options16useSOI__option_tEEEvT_RKNS4_4typeE@Base 1.4
 _ZN4CVC47Options3setINS_7options17newProp__option_tEEEvT_RKNS4_4typeE@Base 1.4
 _ZN4CVC47Options3setINS_7options18mbqiMode__option_tEEEvT_RKNS4_4typeE@Base 1.4
 _ZN4CVC47Options3setINS_7options19doITESimp__option_tEEEvT_RKNS4_4typeE@Base 1.4
 _ZN4CVC47Options3setINS_7options19parseOnly__option_tEEEvT_RKNS4_4typeE@Base 1.4
 _ZN4CVC47Options3setINS_7options19stringExp__option_tEEEvT_RKNS4_4typeE@Base 1.4
 _ZN4CVC47Options3setINS_7options19stringFMF__option_tEEEvT_RKNS4_4typeE@Base 1.4
 _ZN4CVC47Options3setINS_7options19thread_id__option_tEEEvT_RKNS4_4typeE@Base 1.4
 _ZN4CVC47Options3setINS_7options19useApprox__option_tEEEvT_RKNS4_4typeE@Base 1.4
 _ZN4CVC47Options3setINS_7options19verbosity__option_tEEEvT_RKNS4_4typeE@Base 1.4
 _ZN4CVC47Options3setINS_7options20repeatSimp__option_tEEEvT_RKNS4_4typeE@Base 1.4
 _ZN4CVC47Options3setINS_7options20threadArgv__option_tEEEvT_RKNS4_4typeE@Base 1.4
 _ZN4CVC47Options3setINS_7options21binary_name__option_tEEEvT_RKNS4_4typeE@Base 1.4
 _ZN4CVC47Options3setINS_7options21fmfBoundInt__option_tEEEvT_RKNS4_4typeE@Base 1.4
 _ZN4CVC47Options3setINS_7options21interactive__option_tEEEvT_RKNS4_4typeE@Base 1.4
 _ZN4CVC47Options3setINS_7options21rewriteDivk__option_tEEEvT_RKNS4_4typeE@Base 1.4
 _ZN4CVC47Options3setINS_7options21satVarDecay__option_tEEEvT_RKNS4_4typeE@Base 1.4
 _ZN4CVC47Options3setINS_7options22bitblastMode__option_tEEEvT_RKNS4_4typeE@Base 1.4
 _ZN4CVC47Options3setINS_7options22bitvectorAig__option_tEEEvT_RKNS4_4typeE@Base 1.4
 _ZN4CVC47Options3setINS_7options22compressItes__option_tEEEvT_RKNS4_4typeE@Base 1.4
 _ZN4CVC47Options3setINS_7options22decisionMode__option_tEEEvT_RKNS4_4typeE@Base 1.4
 _ZN4CVC47Options3setINS_7options22idlRewriteEq__option_tEEEvT_RKNS4_4typeE@Base 1.4
 _ZN4CVC47Options3setINS_7options22instWhenMode__option_tEEEvT_RKNS4_4typeE@Base 1.4
 _ZN4CVC47Options3setINS_7options22languageHelp__option_tEEEvT_RKNS4_4typeE@Base 1.4
 _ZN4CVC47Options3setINS_7options22replayStream__option_tEEEvT_RKNS4_4typeE@Base 1.4
 _ZN4CVC47Options3setINS_7options22theoryOfMode__option_tEEEvT_RKNS4_4typeE@Base 1.4
 _ZN4CVC47Options3setINS_7options23bvAbstraction__option_tEEEvT_RKNS4_4typeE@Base 1.4
 _ZN4CVC47Options3setINS_7options23collectPivots__option_tEEEvT_RKNS4_4typeE@Base 1.4
 _ZN4CVC47Options3setINS_7options23havePenalties__option_tEEEvT_RKNS4_4typeE@Base 1.4
 _ZN4CVC47Options3setINS_7options23inputLanguage__option_tEEEvT_RKNS4_4typeE@Base 1.4
 _ZN4CVC47Options3setINS_7options23satRandomSeed__option_tEEEvT_RKNS4_4typeE@Base 1.4
 _ZN4CVC47Options3setINS_7options23sortInference__option_tEEEvT_RKNS4_4typeE@Base 1.4
 _ZN4CVC47Options3setINS_7options24arithRewriteEq__option_tEEEvT_RKNS4_4typeE@Base 1.4
 _ZN4CVC47Options3setINS_7options24instFormatMode__option_tEEEvT_RKNS4_4typeE@Base 1.4
 _ZN4CVC47Options3setINS_7options24maxApproxDepth__option_tEEEvT_RKNS4_4typeE@Base 1.4
 _ZN4CVC47Options3setINS_7options24minisatUseElim__option_tEEEvT_RKNS4_4typeE@Base 1.4
 _ZN4CVC47Options3setINS_7options24outputLanguage__option_tEEEvT_RKNS4_4typeE@Base 1.4
 _ZN4CVC47Options3setINS_7options24preSkolemQuant__option_tEEEvT_RKNS4_4typeE@Base 1.4
 _ZN4CVC47Options3setINS_7options24qcfTConstraint__option_tEEEvT_RKNS4_4typeE@Base 1.4
 _ZN4CVC47Options3setINS_7options24satClauseDecay__option_tEEEvT_RKNS4_4typeE@Base 1.4
 _ZN4CVC47Options3setINS_7options25bitvectorToBool__option_tEEEvT_RKNS4_4typeE@Base 1.4
 _ZN4CVC47Options3setINS_7options25doCutAllBounded__option_tEEEvT_RKNS4_4typeE@Base 1.4
 _ZN4CVC47Options3setINS_7options25finiteModelFind__option_tEEEvT_RKNS4_4typeE@Base 1.4
 _ZN4CVC47Options3setINS_7options25fmfBoundIntLazy__option_tEEEvT_RKNS4_4typeE@Base 1.4
 _ZN4CVC47Options3setINS_7options25modelFormatMode__option_tEEEvT_RKNS4_4typeE@Base 1.4
 _ZN4CVC47Options3setINS_7options25soiQuickExplain__option_tEEEvT_RKNS4_4typeE@Base 1.4
 _ZN4CVC47Options3setINS_7options26arraysModelBased__option_tEEEvT_RKNS4_4typeE@Base 1.4
 _ZN4CVC47Options3setINS_7options26decisionStopOnly__option_tEEEvT_RKNS4_4typeE@Base 1.4
 _ZN4CVC47Options3setINS_7options26restrictedPivots__option_tEEEvT_RKNS4_4typeE@Base 1.4
 _ZN4CVC47Options3setINS_7options26theoryAlternates__option_tEEEvT_RKNS4_4typeE@Base 1.4
 _ZN4CVC47Options3setINS_7options27arraysEagerLemmas__option_tEEEvT_RKNS4_4typeE@Base 1.4
 _ZN4CVC47Options3setINS_7options27arraysLazyRIntro1__option_tEEEvT_RKNS4_4typeE@Base 1.4
 _ZN4CVC47Options3setINS_7options27doITESimpOnRepeat__option_tEEEvT_RKNS4_4typeE@Base 1.4
 _ZN4CVC47Options3setINS_7options27dtForceAssignment__option_tEEEvT_RKNS4_4typeE@Base 1.4
 _ZN4CVC47Options3setINS_7options27lemmaInputChannel__option_tEEEvT_RKNS4_4typeE@Base 1.4
 _ZN4CVC47Options3setINS_7options27quantConflictFind__option_tEEEvT_RKNS4_4typeE@Base 1.4
 _ZN4CVC47Options3setINS_7options27ufSymmetryBreaker__option_tEEEvT_RKNS4_4typeE@Base 1.4
 _ZN4CVC47Options3setINS_7options27unconstrainedSimp__option_tEEEvT_RKNS4_4typeE@Base 1.4
 _ZN4CVC47Options3setINS_7options28bitvectorPropagate__option_tEEEvT_RKNS4_4typeE@Base 1.4
 _ZN4CVC47Options3setINS_7options28lemmaOutputChannel__option_tEEEvT_RKNS4_4typeE@Base 1.4
 _ZN4CVC47Options3setINS_7options28simplificationMode__option_tEEEvT_RKNS4_4typeE@Base 1.4
 _ZN4CVC47Options3setINS_7options28skolemizeArguments__option_tEEEvT_RKNS4_4typeE@Base 1.4
 _ZN4CVC47Options3setINS_7options29arithPivotThreshold__option_tEEEvT_RKNS4_4typeE@Base 1.4
 _ZN4CVC47Options3setINS_7options29bvEagerExplanations__option_tEEEvT_RKNS4_4typeE@Base 1.4
 _ZN4CVC47Options3setINS_7options30arithHeuristicPivots__option_tEEEvT_RKNS4_4typeE@Base 1.4
 _ZN4CVC47Options3setINS_7options30arraysOptimizeLinear__option_tEEEvT_RKNS4_4typeE@Base 1.4
 _ZN4CVC47Options3setINS_7options31sharingFilterByLength__option_tEEEvT_RKNS4_4typeE@Base 1.4
 _ZN4CVC47Options3setINS_7options32arithPropAsLemmaLength__option_tEEEvT_RKNS4_4typeE@Base 1.4
 _ZN4CVC47Options3setINS_7options33bitvectorEqualitySlicer__option_tEEEvT_RKNS4_4typeE@Base 1.4
 _ZN4CVC47Options3setINS_7options33bitvectorEqualitySolver__option_tEEEvT_RKNS4_4typeE@Base 1.4
 _ZN4CVC47Options3setINS_7options33exportDioDecompositions__option_tEEEvT_RKNS4_4typeE@Base 1.4
 _ZN4CVC47Options3setINS_7options33simplifyWithCareEnabled__option_tEEEvT_RKNS4_4typeE@Base 1.4
 _ZN4CVC47Options3setINS_7options34bitvectorAlgebraicBudget__option_tEEEvT_RKNS4_4typeE@Base 1.4
 _ZN4CVC47Options3setINS_7options34bitvectorAlgebraicSolver__option_tEEEvT_RKNS4_4typeE@Base 1.4
 _ZN4CVC47Options3setINS_7options35arraysEagerIndexSplitting__option_tEEEvT_RKNS4_4typeE@Base 1.4
 _ZN4CVC47Options3setINS_7options35bitvectorInequalitySolver__option_tEEEvT_RKNS4_4typeE@Base 1.4
 _ZN4CVC47Options3setINS_7options37bitvectorAigSimplifications__option_tEEEvT_RKNS4_4typeE@Base 1.4
 _ZN4CVC47Options3setINS_7options42arithStandardCheckVarOrderPivots__option_tEEEvT_RKNS4_4typeE@Base 1.4
 _ZN4CVC47Options6assignINS_7options17qcfMode__option_tEEEvT_SsSsPNS_9SmtEngineE@Base 1.4
 _ZN4CVC47Options6assignINS_7options17rrTurns__option_tEEEvT_SsSsPNS_9SmtEngineE@Base 1.4
 _ZN4CVC47Options6assignINS_7options17threads__option_tEEEvT_SsSsPNS_9SmtEngineE@Base 1.4
 _ZN4CVC47Options6assignINS_7options18mbqiMode__option_tEEEvT_SsSsPNS_9SmtEngineE@Base 1.4
 _ZN4CVC47Options6assignINS_7options18stringLB__option_tEEEvT_SsSsPNS_9SmtEngineE@Base 1.4
 _ZN4CVC47Options6assignINS_7options19bvNumFunc__option_tEEEvT_SsSsPNS_9SmtEngineE@Base 1.4
 _ZN4CVC47Options6assignINS_7options19replayLog__option_tEEEvT_SsSsPNS_9SmtEngineE@Base 1.4
 _ZN4CVC47Options6assignINS_7options19verbosity__option_tEEEvT_SsSsPNS_9SmtEngineE@Base 1.4
 _ZN4CVC47Options6assignINS_7options20forceLogic__option_tEEEvT_SsSsPNS_9SmtEngineE@Base 1.4
 _ZN4CVC47Options6assignINS_7options21qcfWhenMode__option_tEEEvT_SsSsPNS_9SmtEngineE@Base 1.4
 _ZN4CVC47Options6assignINS_7options22bitblastMode__option_tEEEvT_SsSsPNS_9SmtEngineE@Base 1.4
 _ZN4CVC47Options6assignINS_7options22decisionMode__option_tEEEvT_SsSsPNS_9SmtEngineE@Base 1.4
 _ZN4CVC47Options6assignINS_7options22instMaxLevel__option_tEEEvT_SsSsPNS_9SmtEngineE@Base 1.4
 _ZN4CVC47Options6assignINS_7options22instWhenMode__option_tEEEvT_SsSsPNS_9SmtEngineE@Base 1.4
 _ZN4CVC47Options6assignINS_7options22theoryOfMode__option_tEEEvT_SsSsPNS_9SmtEngineE@Base 1.4
 _ZN4CVC47Options6assignINS_7options23axiomInstMode__option_tEEEvT_SsSsPNS_9SmtEngineE@Base 1.4
 _ZN4CVC47Options6assignINS_7options23inputLanguage__option_tEEEvT_SsSsPNS_9SmtEngineE@Base 1.4
 _ZN4CVC47Options6assignINS_7options23maxReplayTree__option_tEEEvT_SsSsPNS_9SmtEngineE@Base 1.4
 _ZN4CVC47Options6assignINS_7options23satRandomFreq__option_tEEEvT_SsSsPNS_9SmtEngineE@Base 1.4
 _ZN4CVC47Options6assignINS_7options23satRandomSeed__option_tEEEvT_SsSsPNS_9SmtEngineE@Base 1.4
 _ZN4CVC47Options6assignINS_7options23satRestartInc__option_tEEEvT_SsSsPNS_9SmtEngineE@Base 1.4
 _ZN4CVC47Options6assignINS_7options24dioSolverTurns__option_tEEEvT_SsSsPNS_9SmtEngineE@Base 1.4
 _ZN4CVC47Options6assignINS_7options24instFormatMode__option_tEEEvT_SsSsPNS_9SmtEngineE@Base 1.4
 _ZN4CVC47Options6assignINS_7options24maxApproxDepth__option_tEEEvT_SsSsPNS_9SmtEngineE@Base 1.4
 _ZN4CVC47Options6assignINS_7options24outputLanguage__option_tEEEvT_SsSsPNS_9SmtEngineE@Base 1.4
 _ZN4CVC47Options6assignINS_7options24replayFilename__option_tEEEvT_SsSsPNS_9SmtEngineE@Base 1.4
 _ZN4CVC47Options6assignINS_7options25modelFormatMode__option_tEEEvT_SsSsPNS_9SmtEngineE@Base 1.4
 _ZN4CVC47Options6assignINS_7options25satRestartFirst__option_tEEEvT_SsSsPNS_9SmtEngineE@Base 1.4
 _ZN4CVC47Options6assignINS_7options25threadStackSize__option_tEEEvT_SsSsPNS_9SmtEngineE@Base 1.4
 _ZN4CVC47Options6assignINS_7options26defaultDagThresh__option_tEEEvT_SsSsPNS_9SmtEngineE@Base 1.4
 _ZN4CVC47Options6assignINS_7options26defaultExprDepth__option_tEEEvT_SsSsPNS_9SmtEngineE@Base 1.4
 _ZN4CVC47Options6assignINS_7options26literalMatchMode__option_tEEEvT_SsSsPNS_9SmtEngineE@Base 1.4
 _ZN4CVC47Options6assignINS_7options26maxCutsInContext__option_tEEEvT_SsSsPNS_9SmtEngineE@Base 1.4
 _ZN4CVC47Options6assignINS_7options27decisionThreshold__option_tEEEvT_SsSsPNS_9SmtEngineE@Base 1.4
 _ZN4CVC47Options6assignINS_7options27userPatternsQuant__option_tEEEvT_SsSsPNS_9SmtEngineE@Base 1.4
 _ZN4CVC47Options6assignINS_7options28lemmaRejectCutSize__option_tEEEvT_SsSsPNS_9SmtEngineE@Base 1.4
 _ZN4CVC47Options6assignINS_7options28pbRewriteThreshold__option_tEEEvT_SsSsPNS_9SmtEngineE@Base 1.4
 _ZN4CVC47Options6assignINS_7options28ppAssertMaxSubSize__option_tEEEvT_SsSsPNS_9SmtEngineE@Base 1.4
 _ZN4CVC47Options6assignINS_7options28simplificationMode__option_tEEEvT_SsSsPNS_9SmtEngineE@Base 1.4
 _ZN4CVC47Options6assignINS_7options29arithPivotThreshold__option_tEEEvT_SsSsPNS_9SmtEngineE@Base 1.4
 _ZN4CVC47Options6assignINS_7options29arithUnateLemmaMode__option_tEEEvT_SsSsPNS_9SmtEngineE@Base 1.4
 _ZN4CVC47Options6assignINS_7options29replayRejectCutSize__option_tEEEvT_SsSsPNS_9SmtEngineE@Base 1.4
 _ZN4CVC47Options6assignINS_7options29ufssTotalityLimited__option_tEEEvT_SsSsPNS_9SmtEngineE@Base 1.4
 _ZN4CVC47Options6assignINS_7options29zombieHuntThreshold__option_tEEEvT_SsSsPNS_9SmtEngineE@Base 1.4
 _ZN4CVC47Options6assignINS_7options30arithHeuristicPivots__option_tEEEvT_SsSsPNS_9SmtEngineE@Base 1.4
 _ZN4CVC47Options6assignINS_7options30arithPropagationMode__option_tEEEvT_SsSsPNS_9SmtEngineE@Base 1.4
 _ZN4CVC47Options6assignINS_7options30decisionRandomWeight__option_tEEEvT_SsSsPNS_9SmtEngineE@Base 1.4
 _ZN4CVC47Options6assignINS_7options30perCallResourceLimit__option_tEEEvT_SsSsPNS_9SmtEngineE@Base 1.4
 _ZN4CVC47Options6assignINS_7options30replayFailurePenalty__option_tEEEvT_SsSsPNS_9SmtEngineE@Base 1.4
 _ZN4CVC47Options6assignINS_7options30ufssAbortCardinality__option_tEEEvT_SsSsPNS_9SmtEngineE@Base 1.4
 _ZN4CVC47Options6assignINS_7options31sharingFilterByLength__option_tEEEvT_SsSsPNS_9SmtEngineE@Base 1.4
 _ZN4CVC47Options6assignINS_7options31soiApproxMajorFailure__option_tEEEvT_SsSsPNS_9SmtEngineE@Base 1.4
 _ZN4CVC47Options6assignINS_7options31soiApproxMinorFailure__option_tEEEvT_SsSsPNS_9SmtEngineE@Base 1.4
 _ZN4CVC47Options6assignINS_7options31stringCharCardinality__option_tEEEvT_SsSsPNS_9SmtEngineE@Base 1.4
 _ZN4CVC47Options6assignINS_7options32arithPropAsLemmaLength__option_tEEEvT_SsSsPNS_9SmtEngineE@Base 1.4
 _ZN4CVC47Options6assignINS_7options32decisionWeightInternal__option_tEEEvT_SsSsPNS_9SmtEngineE@Base 1.4
 _ZN4CVC47Options6assignINS_7options32replayEarlyCloseDepths__option_tEEEvT_SsSsPNS_9SmtEngineE@Base 1.4
 _ZN4CVC47Options6assignINS_7options33arithErrorSelectionRule__option_tEEEvT_SsSsPNS_9SmtEngineE@Base 1.4
 _ZN4CVC47Options6assignINS_7options33arithPropagateMaxLength__option_tEEEvT_SsSsPNS_9SmtEngineE@Base 1.4
 _ZN4CVC47Options6assignINS_7options33arithSimplexCheckPeriod__option_tEEEvT_SsSsPNS_9SmtEngineE@Base 1.4
 _ZN4CVC47Options6assignINS_7options33bitvectorEqualitySlicer__option_tEEEvT_SsSsPNS_9SmtEngineE@Base 1.4
 _ZN4CVC47Options6assignINS_7options33cumulativeResourceLimit__option_tEEEvT_SsSsPNS_9SmtEngineE@Base 1.4
 _ZN4CVC47Options6assignINS_7options33perCallMillisecondLimit__option_tEEEvT_SsSsPNS_9SmtEngineE@Base 1.4
 _ZN4CVC47Options6assignINS_7options34bitvectorAlgebraicBudget__option_tEEEvT_SsSsPNS_9SmtEngineE@Base 1.4
 _ZN4CVC47Options6assignINS_7options34soiApproxMajorFailurePen__option_tEEEvT_SsSsPNS_9SmtEngineE@Base 1.4
 _ZN4CVC47Options6assignINS_7options34soiApproxMinorFailurePen__option_tEEEvT_SsSsPNS_9SmtEngineE@Base 1.4
 _ZN4CVC47Options6assignINS_7options35arithMLTrickSubstitutions__option_tEEEvT_SsSsPNS_9SmtEngineE@Base 1.4
 _ZN4CVC47Options6assignINS_7options35booleanTermConversionMode__option_tEEEvT_SsSsPNS_9SmtEngineE@Base 1.4
 _ZN4CVC47Options6assignINS_7options36cumulativeMillisecondLimit__option_tEEEvT_SsSsPNS_9SmtEngineE@Base 1.4
 _ZN4CVC47Options6assignINS_7options37bitvectorAigSimplifications__option_tEEEvT_SsSsPNS_9SmtEngineE@Base 1.4
 _ZN4CVC47Options6assignINS_7options37replayNumericFailurePenalty__option_tEEEvT_SsSsPNS_9SmtEngineE@Base 1.4
 _ZN4CVC47Options6assignINS_7options42arithStandardCheckVarOrderPivots__option_tEEEvT_SsSsPNS_9SmtEngineE@Base 1.4
 _ZN4CVC47Options9s_currentE@Base 1.4
 _ZN4CVC47OptionsC1ERKS0_@Base 1.4
 _ZN4CVC47OptionsC1Ev@Base 1.4
 _ZN4CVC47OptionsC2ERKS0_@Base 1.4
 _ZN4CVC47OptionsC2Ev@Base 1.4
 _ZN4CVC47OptionsD1Ev@Base 1.4
 _ZN4CVC47OptionsD2Ev@Base 1.4
 _ZN4CVC47SetTypeC1ERKNS_4TypeE@Base 1.4
 _ZN4CVC47SetTypeC2ERKNS_4TypeE@Base 1.4
 _ZN4CVC47SetTypeD0Ev@Base 1.4
 _ZN4CVC47SetTypeD1Ev@Base 1.4
 _ZN4CVC47SetTypeD2Ev@Base 1.4
 _ZN4CVC47null_osE@Base 1.4
 _ZN4CVC47options10dumpModelsE@Base 1.4
 _ZN4CVC47options10dumpProofsE@Base 1.4
 _ZN4CVC47options10fmfInstGenE@Base 1.4
 _ZN4CVC47options10forceLogicE@Base 1.4
 _ZN4CVC47options10pbRewritesE@Base 1.4
 _ZN4CVC47options10repeatSimpE@Base 1.4
 _ZN4CVC47options10statisticsE@Base 1.4
 _ZN4CVC47options10stringOpt1E@Base 1.4
 _ZN4CVC47options10stringOpt2E@Base 1.4
 _ZN4CVC47options10threadArgvE@Base 1.4
 _ZN4CVC47options10unsatCoresE@Base 1.4
 _ZN4CVC47options10waitToJoinE@Base 1.4
 _ZN4CVC47options11binary_nameE@Base 1.4
 _ZN4CVC47options11checkModelsE@Base 1.4
 _ZN4CVC47options11checkProofsE@Base 1.4
 _ZN4CVC47options11clauseSplitE@Base 1.4
 _ZN4CVC47options11fmfBoundIntE@Base 1.4
 _ZN4CVC47options11foPropQuantE@Base 1.4
 _ZN4CVC47options11interactiveE@Base 1.4
 _ZN4CVC47options11macrosQuantE@Base 1.4
 _ZN4CVC47options11prenexQuantE@Base 1.4
 _ZN4CVC47options11qcfWhenModeE@Base 1.4
 _ZN4CVC47options11recurseCbqiE@Base 1.4
 _ZN4CVC47options11rewriteDivkE@Base 1.4
 _ZN4CVC47options11satVarDecayE@Base 1.4
 _ZN4CVC47options11ufssRegionsE@Base 1.4
 _ZN4CVC47options12arithMLTrickE@Base 1.4
 _ZN4CVC47options12bitblastModeE@Base 1.4
 _ZN4CVC47options12bitvectorAigE@Base 1.4
 _ZN4CVC47options12compressItesE@Base 1.4
 _ZN4CVC47options12decisionModeE@Base 1.4
 _ZN4CVC47options12flipDecisionE@Base 1.4
 _ZN4CVC47options12fmfFmcSimpleE@Base 1.4
 _ZN4CVC47options12idlRewriteEqE@Base 1.4
 _ZN4CVC47options12instMaxLevelE@Base 1.4
 _ZN4CVC47options12instWhenModeE@Base 1.4
 _ZN4CVC47options12internalRepsE@Base 1.4
 _ZN4CVC47options12languageHelpE@Base 1.4
 _ZN4CVC47options12printSuccessE@Base 1.4
 _ZN4CVC47options12replayStreamE@Base 1.4
 _ZN4CVC47options12theoryOfModeE@Base 1.4
 _ZN4CVC47options12typeCheckingE@Base 1.4
 _ZN4CVC47options12ufssFairnessE@Base 1.4
 _ZN4CVC47options12ufssSymBreakE@Base 1.4
 _ZN4CVC47options12ufssTotalityE@Base 1.4
 _ZN4CVC47options12varElimQuantE@Base 1.4
 _ZN4CVC47options13axiomInstModeE@Base 1.4
 _ZN4CVC47options13bvAbstractionE@Base 1.4
 _ZN4CVC47options13collectPivotsE@Base 1.4
 _ZN4CVC47options13fmfInstEngineE@Base 1.4
 _ZN4CVC47options13havePenaltiesE@Base 1.4
 _ZN4CVC47options13inputLanguageE@Base 1.4
 _ZN4CVC47options13maxReplayTreeE@Base 1.4
 _ZN4CVC47options13produceModelsE@Base 1.4
 _ZN4CVC47options13satRandomFreqE@Base 1.4
 _ZN4CVC47options13satRandomSeedE@Base 1.4
 _ZN4CVC47options13satRestartIncE@Base 1.4
 _ZN4CVC47options13setsPropagateE@Base 1.4
 _ZN4CVC47options13smartTriggersE@Base 1.4
 _ZN4CVC47options13sortInferenceE@Base 1.4
 _ZN4CVC47options13strictParsingE@Base 1.4
 _ZN4CVC47options14abstractValuesE@Base 1.4
 _ZN4CVC47options14arithDioSolverE@Base 1.4
 _ZN4CVC47options14arithRewriteEqE@Base 1.4
 _ZN4CVC47options14dioSolverTurnsE@Base 1.4
 _ZN4CVC47options14dtStcInductionE@Base 1.4
 _ZN4CVC47options14eagerInstQuantE@Base 1.4
 _ZN4CVC47options14instFormatModeE@Base 1.4
 _ZN4CVC47options14maxApproxDepthE@Base 1.4
 _ZN4CVC47options14minisatUseElimE@Base 1.4
 _ZN4CVC47options14miniscopeQuantE@Base 1.4
 _ZN4CVC47options14outputLanguageE@Base 1.4
 _ZN4CVC47options14preSkolemQuantE@Base 1.4
 _ZN4CVC47options14preprocessOnlyE@Base 1.4
 _ZN4CVC47options14qcfTConstraintE@Base 1.4
 _ZN4CVC47options14replayFilenameE@Base 1.4
 _ZN4CVC47options14satClauseDecayE@Base 1.4
 _ZN4CVC47options14semanticChecksE@Base 1.4
 _ZN4CVC47options14statsHideZerosE@Base 1.4
 _ZN4CVC47options15bitvectorToBoolE@Base 1.4
 _ZN4CVC47options15bvIntroducePow2E@Base 1.4
 _ZN4CVC47options15doCutAllBoundedE@Base 1.4
 _ZN4CVC47options15finiteModelFindE@Base 1.4
 _ZN4CVC47options15fmfBoundIntLazyE@Base 1.4
 _ZN4CVC47options15modelFormatModeE@Base 1.4
 _ZN4CVC47options15satRestartFirstE@Base 1.4
 _ZN4CVC47options15setsEagerLemmasE@Base 1.4
 _ZN4CVC47options15soiQuickExplainE@Base 1.4
 _ZN4CVC47options15statsEveryQueryE@Base 1.4
 _ZN4CVC47options15threadStackSizeE@Base 1.4
 _ZN4CVC47options15ufssEagerSplitsE@Base 1.4
 _ZN4CVC47options16arraysModelBasedE@Base 1.4
 _ZN4CVC47options16biasedITERemovalE@Base 1.4
 _ZN4CVC47options16decisionStopOnlyE@Base 1.4
 _ZN4CVC47options16defaultDagThreshE@Base 1.4
 _ZN4CVC47options16defaultExprDepthE@Base 1.4
 _ZN4CVC47options16doStaticLearningE@Base 1.4
 _ZN4CVC47options16filesystemAccessE@Base 1.4
 _ZN4CVC47options16literalMatchModeE@Base 1.4
 _ZN4CVC47options16maxCutsInContextE@Base 1.4
 _ZN4CVC47options16relevantTriggersE@Base 1.4
 _ZN4CVC47options16restrictedPivotsE@Base 1.4
 _ZN4CVC47options16theoryAlternatesE@Base 1.4
 _ZN4CVC47options16ufssCliqueSplitsE@Base 1.4
 _ZN4CVC47options16ufssMinimalModelE@Base 1.4
 _ZN4CVC47options17arraysEagerLemmasE@Base 1.4
 _ZN4CVC47options17arraysLazyRIntro1E@Base 1.4
 _ZN4CVC47options17decisionThresholdE@Base 1.4
 _ZN4CVC47options17decisionUseWeightE@Base 1.4
 _ZN4CVC47options17doITESimpOnRepeatE@Base 1.4
 _ZN4CVC47options17dtForceAssignmentE@Base 1.4
 _ZN4CVC47options17dtRewriteErrorSelE@Base 1.4
 _ZN4CVC47options17earlyTypeCheckingE@Base 1.4
 _ZN4CVC47options17expandDefinitionsE@Base 1.4
 _ZN4CVC47options17fmfFreshDistConstE@Base 1.4
 _ZN4CVC47options17fullSaturateQuantE@Base 1.4
 _ZN4CVC47options17interactivePromptE@Base 1.4
 _ZN4CVC47options17lemmaInputChannelE@Base 1.4
 _ZN4CVC47options17minisatDumpDimacsE@Base 1.4
 _ZN4CVC47options17quantConflictFindE@Base 1.4
 _ZN4CVC47options17quantRewriteRulesE@Base 1.4
 _ZN4CVC47options17revertArithModelsE@Base 1.4
 _ZN4CVC47options17rrOneInstPerRoundE@Base 1.4
 _ZN4CVC47options17ufSymmetryBreakerE@Base 1.4
 _ZN4CVC47options17ufssSimpleCliquesE@Base 1.4
 _ZN4CVC47options17unconstrainedSimpE@Base 1.4
 _ZN4CVC47options17userPatternsQuantE@Base 1.4
 _ZN4CVC47options18bitvectorPropagateE@Base 1.4
 _ZN4CVC47options18continuedExecutionE@Base 1.4
 _ZN4CVC47options18dumpInstantiationsE@Base 1.4
 _ZN4CVC47options18fallbackSequentialE@Base 1.4
 _ZN4CVC47options18fmfOneInstPerRoundE@Base 1.4
 _ZN4CVC47options18incrementalSolvingE@Base 1.4
 _ZN4CVC47options18lemmaOutputChannelE@Base 1.4
 _ZN4CVC47options18lemmaRejectCutSizeE@Base 1.4
 _ZN4CVC47options18pbRewriteThresholdE@Base 1.4
 _ZN4CVC47options18ppAssertMaxSubSizeE@Base 1.4
 _ZN4CVC47options18produceAssignmentsE@Base 1.4
 _ZN4CVC47options18relationalTriggersE@Base 1.4
 _ZN4CVC47options18replayFailureLemmaE@Base 1.4
 _ZN4CVC47options18simpleIteLiftQuantE@Base 1.4
 _ZN4CVC47options18simplificationModeE@Base 1.4
 _ZN4CVC47options18skolemizeArgumentsE@Base 1.4
 _ZN4CVC47options19arithPivotThresholdE@Base 1.4
 _ZN4CVC47options19arithUnateLemmaModeE@Base 1.4
 _ZN4CVC47options19bvEagerExplanationsE@Base 1.4
 _ZN4CVC47options19fmfOneQuantPerRoundE@Base 1.4
 _ZN4CVC47options19incrementalParallelE@Base 1.4
 _ZN4CVC47options19modelUninterpDtEnumE@Base 1.4
 _ZN4CVC47options19replayRejectCutSizeE@Base 1.4
 _ZN4CVC47options19rewriteApplyToConstE@Base 1.4
 _ZN4CVC47options19tearDownIncrementalE@Base 1.4
 _ZN4CVC47options19ufssTotalityLimitedE@Base 1.4
 _ZN4CVC47options19zombieHuntThresholdE@Base 1.4
 _ZN4CVC47options20arithHeuristicPivotsE@Base 1.4
 _ZN4CVC47options20arithPropagationModeE@Base 1.4
 _ZN4CVC47options20arraysOptimizeLinearE@Base 1.4
 _ZN4CVC47options20bitvectorQuickXplainE@Base 1.4
 _ZN4CVC47options20decisionRandomWeightE@Base 1.4
 _ZN4CVC47options20perCallResourceLimitE@Base 1.4
 _ZN4CVC47options20replayFailurePenaltyE@Base 1.4
 _ZN4CVC47options20sat_refine_conflictsE@Base 1.4
 _ZN4CVC47options20ufssAbortCardinalityE@Base 1.4
 _ZN4CVC47options20ufssDiseqPropagationE@Base 1.4
 _ZN4CVC47options20ufssExplainedCliquesE@Base 1.4
 _ZN4CVC47options20ufssTotalitySymBreakE@Base 1.4
 _ZN4CVC47options21miniscopeQuantFreeVarE@Base 1.4
 _ZN4CVC47options21sharingFilterByLengthE@Base 1.4
 _ZN4CVC47options21soiApproxMajorFailureE@Base 1.4
 _ZN4CVC47options21soiApproxMinorFailureE@Base 1.4
 _ZN4CVC47options21stringCharCardinalityE@Base 1.4
 _ZN4CVC47options22arithPropAsLemmaLengthE@Base 1.4
 _ZN4CVC47options22condenseFunctionValuesE@Base 1.4
 _ZN4CVC47options22decisionWeightInternalE@Base 1.4
 _ZN4CVC47options22registerQuantBodyTermsE@Base 1.4
 _ZN4CVC47options22replayEarlyCloseDepthsE@Base 1.4
 _ZN4CVC47options23arithErrorSelectionRuleE@Base 1.4
 _ZN4CVC47options23arithPropagateMaxLengthE@Base 1.4
 _ZN4CVC47options23arithSimplexCheckPeriodE@Base 1.4
 _ZN4CVC47options23bitvectorDivByZeroConstE@Base 1.4
 _ZN4CVC47options23bitvectorEqualitySlicerE@Base 1.4
 _ZN4CVC47options23bitvectorEqualitySolverE@Base 1.4
 _ZN4CVC47options23cumulativeResourceLimitE@Base 1.4
 _ZN4CVC47options23exportDioDecompositionsE@Base 1.4
 _ZN4CVC47options23perCallMillisecondLimitE@Base 1.4
 _ZN4CVC47options23simplifyWithCareEnabledE@Base 1.4
 _ZN4CVC47options24aggressiveMiniscopeQuantE@Base 1.4
 _ZN4CVC47options24bitvectorAlgebraicBudgetE@Base 1.4
 _ZN4CVC47options24bitvectorAlgebraicSolverE@Base 1.4
 _ZN4CVC47options24forceNoLimitCpuWhileDumpE@Base 1.4
 _ZN4CVC47options24soiApproxMajorFailurePenE@Base 1.4
 _ZN4CVC47options24soiApproxMinorFailurePenE@Base 1.4
 _ZN4CVC47options25arithMLTrickSubstitutionsE@Base 1.4
 _ZN4CVC47options25arraysEagerIndexSplittingE@Base 1.4
 _ZN4CVC47options25bitvectorInequalitySolverE@Base 1.4
 _ZN4CVC47options25booleanTermConversionModeE@Base 1.4
 _ZN4CVC47options25trySolveIntStandardEffortE@Base 1.4
 _ZN4CVC47options26cumulativeMillisecondLimitE@Base 1.4
 _ZN4CVC47options26fmfInstGenOneQuantPerRoundE@Base 1.4
 _ZN4CVC47options27bitvectorAigSimplificationsE@Base 1.4
 _ZN4CVC47options27replayNumericFailurePenaltyE@Base 1.4
 _ZN4CVC47options2inE@Base 1.4
 _ZN4CVC47options32arithStandardCheckVarOrderPivotsE@Base 1.4
 _ZN4CVC47options3errE@Base 1.4
 _ZN4CVC47options3outE@Base 1.4
 _ZN4CVC47options4cbqiE@Base 1.4
 _ZN4CVC47options4helpE@Base 1.4
 _ZN4CVC47options5proofE@Base 1.4
 _ZN4CVC47options5useFCE@Base 1.4
 _ZN4CVC47options6useSOIE@Base 1.4
 _ZN4CVC47options7newPropE@Base 1.4
 _ZN4CVC47options7qcfModeE@Base 1.4
 _ZN4CVC47options7rrTurnsE@Base 1.4
 _ZN4CVC47options7threadsE@Base 1.4
 _ZN4CVC47options7versionE@Base 1.4
 _ZN4CVC47options8cnfQuantE@Base 1.4
 _ZN4CVC47options8mbqiModeE@Base 1.4
 _ZN4CVC47options8nnfQuantE@Base 1.4
 _ZN4CVC47options8segvSpinE@Base 1.4
 _ZN4CVC47options8stringLBE@Base 1.4
 _ZN4CVC47options9bvNumFuncE@Base 1.4
 _ZN4CVC47options9dioRepeatE@Base 1.4
 _ZN4CVC47options9doITESimpE@Base 1.4
 _ZN4CVC47options9earlyExitE@Base 1.4
 _ZN4CVC47options9memoryMapE@Base 1.4
 _ZN4CVC47options9parseOnlyE@Base 1.4
 _ZN4CVC47options9replayLogE@Base 1.4
 _ZN4CVC47options9stringEITE@Base 1.4
 _ZN4CVC47options9stringExpE@Base 1.4
 _ZN4CVC47options9stringFMFE@Base 1.4
 _ZN4CVC47options9thread_idE@Base 1.4
 _ZN4CVC47options9useApproxE@Base 1.4
 _ZN4CVC47options9verbosityE@Base 1.4
 _ZN4CVC48Datatype10datatypeOfENS_4ExprE@Base 1.4
 _ZN4CVC48Datatype14addConstructorERKNS_19DatatypeConstructorE@Base 1.4
 _ZN4CVC48Datatype7indexOfENS_4ExprE@Base 1.4
 _ZN4CVC48Datatype7resolveEPNS_11ExprManagerERKSt3mapISsNS_12DatatypeTypeESt4lessISsESaISt4pairIKSsS4_EEERKSt6vectorINS_4TypeESaISF_EESJ_RKSE_INS_19SortConstructorTypeESaISK_EERKSE_IS4_SaIS4_EE@Base 1.4
 _ZN4CVC48Datatype8cindexOfENS_4ExprE@Base 1.4
 _ZN4CVC48DatatypeC1ERKS0_@Base 1.4
 _ZN4CVC48DatatypeC1ESsRKSt6vectorINS_4TypeESaIS2_EEb@Base 1.4
 _ZN4CVC48DatatypeC1ESsb@Base 1.4
 _ZN4CVC48DatatypeC2ERKS0_@Base 1.4
 _ZN4CVC48DatatypeC2ESsRKSt6vectorINS_4TypeESaIS2_EEb@Base 1.4
 _ZN4CVC48DatatypeC2ESsb@Base 1.4
 _ZN4CVC48DatatypeD1Ev@Base 1.4
 _ZN4CVC48DatatypeD2Ev@Base 1.4
 _ZN4CVC48DumpOutC6printfEPKcS2_z@Base 1.4
 _ZN4CVC48DumpOutC6printfESsPKcz@Base 1.4
 _ZN4CVC48DumpOutC9dump_coutE@Base 1.4
 _ZN4CVC48DumpOutCD1Ev@Base 1.4
 _ZN4CVC48DumpOutCD2Ev@Base 1.4
 _ZN4CVC48EmptySetD1Ev@Base 1.4
 _ZN4CVC48EmptySetD2Ev@Base 1.4
 _ZN4CVC48MessageC6printfEPKcz@Base 1.4
 _ZN4CVC48Rational10fromDoubleEd@Base 1.4
 _ZN4CVC48Rational11fromDecimalERKSs@Base 1.4
 _ZN4CVC48RationalC1EPKcj@Base 1.4
 _ZN4CVC48RationalC1ERKNS_7IntegerE@Base 1.4
 _ZN4CVC48RationalC1ERKS0_@Base 1.4
 _ZN4CVC48RationalC1Ei@Base 1.4
 _ZN4CVC48RationalC1Eii@Base 1.4
 _ZN4CVC48RationalC1Ej@Base 1.4
 _ZN4CVC48RationalC1Ev@Base 1.4
 _ZN4CVC48RationalC2EPKcj@Base 1.4
 _ZN4CVC48RationalC2ERKNS_7IntegerE@Base 1.4
 _ZN4CVC48RationalC2ERKS0_@Base 1.4
 _ZN4CVC48RationalC2Ei@Base 1.4
 _ZN4CVC48RationalC2Eii@Base 1.4
 _ZN4CVC48RationalC2Ej@Base 1.4
 _ZN4CVC48RationalC2Ev@Base 1.4
 _ZN4CVC48RealTypeC1ERKNS_4TypeE@Base 1.4
 _ZN4CVC48RealTypeC2ERKNS_4TypeE@Base 1.4
 _ZN4CVC48RealTypeD0Ev@Base 1.4
 _ZN4CVC48RealTypeD1Ev@Base 1.4
 _ZN4CVC48RealTypeD2Ev@Base 1.4
 _ZN4CVC48SortTypeC1ERKNS_4TypeE@Base 1.4
 _ZN4CVC48SortTypeC2ERKNS_4TypeE@Base 1.4
 _ZN4CVC48SortTypeD0Ev@Base 1.4
 _ZN4CVC48SortTypeD1Ev@Base 1.4
 _ZN4CVC48SortTypeD2Ev@Base 1.4
 _ZN4CVC48WarningC6printfEPKcz@Base 1.4
 _ZN4CVC48WarningCD1Ev@Base 1.4
 _ZN4CVC48WarningCD2Ev@Base 1.4
 _ZN4CVC48language15toInputLanguageENS0_6output8LanguageE@Base 1.4
 _ZN4CVC48language15toInputLanguageESs@Base 1.4
 _ZN4CVC48language16toOutputLanguageENS0_5input8LanguageE@Base 1.4
 _ZN4CVC48language16toOutputLanguageESs@Base 1.4
 _ZN4CVC48language6outputlsERSoNS1_8LanguageE@Base 1.4
 _ZN4CVC49ArrayTypeC1ERKNS_4TypeE@Base 1.4
 _ZN4CVC49ArrayTypeC2ERKNS_4TypeE@Base 1.4
 _ZN4CVC49ArrayTypeD0Ev@Base 1.4
 _ZN4CVC49ArrayTypeD1Ev@Base 1.4
 _ZN4CVC49ArrayTypeD2Ev@Base 1.4
 _ZN4CVC49BitVectorC1Ejj@Base 1.4
 _ZN4CVC49BitVectorC2Ejj@Base 1.4
 _ZN4CVC49DivisibleC1ERKNS_7IntegerE@Base 1.4
 _ZN4CVC49DivisibleC2ERKNS_7IntegerE@Base 1.4
 _ZN4CVC49ExceptionC1EPKc@Base 1.4
 _ZN4CVC49ExceptionC1ERKSs@Base 1.4
 _ZN4CVC49ExceptionC1Ev@Base 1.4
 _ZN4CVC49ExceptionC2EPKc@Base 1.4
 _ZN4CVC49ExceptionC2ERKSs@Base 1.4
 _ZN4CVC49ExceptionC2Ev@Base 1.4
 _ZN4CVC49ExceptionD0Ev@Base 1.4
 _ZN4CVC49ExceptionD1Ev@Base 1.4
 _ZN4CVC49ExceptionD2Ev@Base 1.4
 _ZN4CVC49LogicInfo11enableRealsEv@Base 1.4
 _ZN4CVC49LogicInfo12disableRealsEv@Base 1.4
 _ZN4CVC49LogicInfo12enableTheoryENS_6theory8TheoryIdE@Base 1.4
 _ZN4CVC49LogicInfo13disableTheoryENS_6theory8TheoryIdE@Base 1.4
 _ZN4CVC49LogicInfo14arithNonLinearEv@Base 1.4
 _ZN4CVC49LogicInfo14enableIntegersEv@Base 1.4
 _ZN4CVC49LogicInfo14setLogicStringESs@Base 1.4
 _ZN4CVC49LogicInfo15arithOnlyLinearEv@Base 1.4
 _ZN4CVC49LogicInfo15disableIntegersEv@Base 1.4
 _ZN4CVC49LogicInfo16enableEverythingEv@Base 1.4
 _ZN4CVC49LogicInfo17disableEverythingEv@Base 1.4
 _ZN4CVC49LogicInfo19arithOnlyDifferenceEv@Base 1.4
 _ZN4CVC49LogicInfoC1EPKc@Base 1.4
 _ZN4CVC49LogicInfoC1ERKS0_@Base 1.4
 _ZN4CVC49LogicInfoC1ESs@Base 1.4
 _ZN4CVC49LogicInfoC1Ev@Base 1.4
 _ZN4CVC49LogicInfoC2EPKc@Base 1.4
 _ZN4CVC49LogicInfoC2ERKS0_@Base 1.4
 _ZN4CVC49LogicInfoC2ESs@Base 1.4
 _ZN4CVC49LogicInfoC2Ev@Base 1.4
 _ZN4CVC49LogicInfoD1Ev@Base 1.4
 _ZN4CVC49LogicInfoD2Ev@Base 1.4
 _ZN4CVC49LogicInfoaSERKS0_@Base 1.4
 _ZN4CVC49PredicateC1ENS_4ExprES1_@Base 1.4
 _ZN4CVC49PredicateC2ENS_4ExprES1_@Base 1.4
 _ZN4CVC49PredicateD1Ev@Base 1.4
 _ZN4CVC49PredicateD2Ev@Base 1.4
 _ZN4CVC49SExprTypeC1ERKNS_4TypeE@Base 1.4
 _ZN4CVC49SExprTypeC2ERKNS_4TypeE@Base 1.4
 _ZN4CVC49SExprTypeD0Ev@Base 1.4
 _ZN4CVC49SExprTypeD1Ev@Base 1.4
 _ZN4CVC49SExprTypeD2Ev@Base 1.4
 _ZN4CVC49SmtEngine10checkModelEb@Base 1.4
 _ZN4CVC49SmtEngine10checkProofEv@Base 1.4
 _ZN4CVC49SmtEngine10finishInitEv@Base 1.4
 _ZN4CVC49SmtEngine10quickCheckEv@Base 1.4
 _ZN4CVC49SmtEngine11internalPopEb@Base 1.4
 _ZN4CVC49SmtEngine11setDefaultsEv@Base 1.4
 _ZN4CVC49SmtEngine12internalPushEv@Base 1.4
 _ZN4CVC49SmtEngine12setTimeLimitEmb@Base 1.4
 _ZN4CVC49SmtEngine13assertFormulaERKNS_4ExprE@Base 1.4
 _ZN4CVC49SmtEngine13doPendingPopsEv@Base 1.4
 _ZN4CVC49SmtEngine13ensureBooleanERKNS_4ExprE@Base 1.4
 _ZN4CVC49SmtEngine13getAssertionsEv@Base 1.4
 _ZN4CVC49SmtEngine13getAssignmentEv@Base 1.4
 _ZN4CVC49SmtEngine14defineFunctionENS_4ExprERKSt6vectorIS1_SaIS1_EES1_@Base 1.4
 _ZN4CVC49SmtEngine15addToAssignmentERKNS_4ExprE@Base 1.4
 _ZN4CVC49SmtEngine16setLogicInternalEv@Base 1.4
 _ZN4CVC49SmtEngine16setResourceLimitEmb@Base 1.4
 _ZN4CVC49SmtEngine16setUserAttributeERKSsNS_4ExprE@Base 1.4
 _ZN4CVC49SmtEngine17expandDefinitionsERKNS_4ExprE@Base 1.4
 _ZN4CVC49SmtEngine18finalOptionsAreSetEv@Base 1.4
 _ZN4CVC49SmtEngine19printInstantiationsERSo@Base 1.4
 _ZN4CVC49SmtEngine19setPrintFuncInModelENS_4ExprEb@Base 1.4
 _ZN4CVC49SmtEngine24addToModelCommandAndDumpERKNS_7CommandEjbPKc@Base 1.4
 _ZN4CVC49SmtEngine3popEv@Base 1.4
 _ZN4CVC49SmtEngine4pushEv@Base 1.4
 _ZN4CVC49SmtEngine5checkEv@Base 1.4
 _ZN4CVC49SmtEngine5queryERKNS_4ExprE@Base 1.4
 _ZN4CVC49SmtEngine7setInfoERKSsRKNS_5SExprE@Base 1.4
 _ZN4CVC49SmtEngine8checkSatERKNS_4ExprE@Base 1.4
 _ZN4CVC49SmtEngine8getModelEv@Base 1.4
 _ZN4CVC49SmtEngine8getProofEv@Base 1.4
 _ZN4CVC49SmtEngine8setLogicEPKc@Base 1.4
 _ZN4CVC49SmtEngine8setLogicERKNS_9LogicInfoE@Base 1.4
 _ZN4CVC49SmtEngine8setLogicERKSs@Base 1.4
 _ZN4CVC49SmtEngine8shutdownEv@Base 1.4
 _ZN4CVC49SmtEngine8simplifyERKNS_4ExprE@Base 1.4
 _ZN4CVC49SmtEngine9interruptEv@Base 1.4
 _ZN4CVC49SmtEngine9setOptionERKSsRKNS_5SExprE@Base 1.4
 _ZN4CVC49SmtEngineC1EPNS_11ExprManagerE@Base 1.4
 _ZN4CVC49SmtEngineC2EPNS_11ExprManagerE@Base 1.4
 _ZN4CVC49SmtEngineD1Ev@Base 1.4
 _ZN4CVC49SmtEngineD2Ev@Base 1.4
 _ZN4CVC49TupleTypeC1ERKNS_4TypeE@Base 1.4
 _ZN4CVC49TupleTypeC2ERKNS_4TypeE@Base 1.4
 _ZN4CVC49TupleTypeD0Ev@Base 1.4
 _ZN4CVC49TupleTypeD1Ev@Base 1.4
 _ZN4CVC49TupleTypeD2Ev@Base 1.4
 _ZN4CVC4eqENS_6Result3SatERKS0_@Base 1.4
 _ZN4CVC4eqENS_6Result8ValidityERKS0_@Base 1.4
 _ZN4CVC4lsERSoNS_14InstFormatModeE@Base 1.4
 _ZN4CVC4lsERSoNS_15BenchmarkStatusE@Base 1.4
 _ZN4CVC4lsERSoNS_15CardinalityBethE@Base 1.4
 _ZN4CVC4lsERSoNS_15ModelFormatModeE@Base 1.4
 _ZN4CVC4lsERSoNS_18ErrorSelectionRuleE@Base 1.4
 _ZN4CVC4lsERSoNS_18SimplificationModeE@Base 1.4
 _ZN4CVC4lsERSoNS_19ArithUnateLemmaModeE@Base 1.4
 _ZN4CVC4lsERSoNS_20ArithPropagationModeE@Base 1.4
 _ZN4CVC4lsERSoNS_6Result18UnknownExplanationE@Base 1.4
 _ZN4CVC4lsERSoNS_6Result3SatE@Base 1.4
 _ZN4CVC4lsERSoNS_6Result8ValidityE@Base 1.4
 _ZN4CVC4lsERSoNS_6theory11quantifiers12InstWhenModeE@Base 1.4
 _ZN4CVC4lsERSoNS_6theory2bv12BitblastModeE@Base 1.4
 _ZN4CVC4lsERSoNS_6theory2bv12BvSlicerModeE@Base 1.4
 _ZN4CVC4lsERSoNS_6theory8booleans25BooleanTermConversionModeE@Base 1.4
 _ZN4CVC4lsERSoNS_8decision12DecisionModeE@Base 1.4
 _ZN4CVC4lsERSoPKNS_13CommandStatusE@Base 1.4
 _ZN4CVC4lsERSoPKNS_7CommandE@Base 1.4
 _ZN4CVC4lsERSoRKNS_11CardinalityE@Base 1.4
 _ZN4CVC4lsERSoRKNS_13AbstractValueE@Base 1.4
 _ZN4CVC4lsERSoRKNS_13ArrayStoreAllE@Base 1.4
 _ZN4CVC4lsERSoRKNS_13CommandStatusE@Base 1.4
 _ZN4CVC4lsERSoRKNS_13SubrangeBoundE@Base 1.4
 _ZN4CVC4lsERSoRKNS_14SubrangeBoundsE@Base 1.4
 _ZN4CVC4lsERSoRKNS_19DatatypeConstructorE@Base 1.4
 _ZN4CVC4lsERSoRKNS_21TypeCheckingExceptionE@Base 1.4
 _ZN4CVC4lsERSoRKNS_21UninterpretedConstantE@Base 1.4
 _ZN4CVC4lsERSoRKNS_22DatatypeConstructorArgE@Base 1.4
 _ZN4CVC4lsERSoRKNS_4ExprE@Base 1.4
 _ZN4CVC4lsERSoRKNS_4TypeE@Base 1.4
 _ZN4CVC4lsERSoRKNS_5SExprE@Base 1.4
 _ZN4CVC4lsERSoRKNS_6RecordE@Base 1.4
 _ZN4CVC4lsERSoRKNS_6RegExpE@Base 1.4
 _ZN4CVC4lsERSoRKNS_6ResultE@Base 1.4
 _ZN4CVC4lsERSoRKNS_6StringE@Base 1.4
 _ZN4CVC4lsERSoRKNS_7CommandE@Base 1.4
 _ZN4CVC4lsERSoRKNS_8DatatypeE@Base 1.4
 _ZN4CVC4lsERSoRKNS_8EmptySetE@Base 1.4
 _ZN4CVC4lsERSoRKNS_8RationalE@Base 1.4
 _ZN4CVC4lsERSoRKNS_9BitVectorE@Base 1.4
 _ZN4CVC4lsERSoRKNS_9LogicInfoE@Base 1.4
 _ZN4CVC4lsERSoRKNS_9PredicateE@Base 1.4
 _ZN4CVC4neENS_6Result3SatERKS0_@Base 1.4
 _ZN4CVC4neENS_6Result8ValidityERKS0_@Base 1.4
 _ZN7Minisat10SimpSolverD0Ev@Base 1.4
 _ZN7Minisat10SimpSolverD1Ev@Base 1.4
 _ZN7Minisat10SimpSolverD2Ev@Base 1.4
 _ZN7Minisat6SolverD0Ev@Base 1.4
 _ZN7Minisat6SolverD1Ev@Base 1.4
 _ZN7Minisat6SolverD2Ev@Base 1.4
 _ZN9__gnu_cxx21_Hashtable_prime_listImE16__stl_prime_listE@Base 1.4
 _ZN9__gnu_cxx9hashtableIN4CVC44TypeES2_NS1_16TypeHashFunctionESt9_IdentityIS2_ESt8equal_toIS2_ESaIS2_EE6resizeEm@Base 1.4
 _ZN9__gnu_cxx9hashtableIN4CVC44TypeES2_NS1_16TypeHashFunctionESt9_IdentityIS2_ESt8equal_toIS2_ESaIS2_EED1Ev@Base 1.4
 _ZN9__gnu_cxx9hashtableIN4CVC44TypeES2_NS1_16TypeHashFunctionESt9_IdentityIS2_ESt8equal_toIS2_ESaIS2_EED2Ev@Base 1.4
 _ZN9__gnu_cxx9hashtableIPKN4CVC419DatatypeConstructorES4_NS1_20DatatypeHashFunctionESt9_IdentityIS4_ESt8equal_toIS4_ESaIS4_EE12_M_copy_fromERKSB_@Base 1.4
 _ZN9__gnu_cxx9hashtableIPKN4CVC419DatatypeConstructorES4_NS1_20DatatypeHashFunctionESt9_IdentityIS4_ESt8equal_toIS4_ESaIS4_EE5eraseERKS4_@Base 1.4
 _ZN9__gnu_cxx9hashtableIPKN4CVC419DatatypeConstructorES4_NS1_20DatatypeHashFunctionESt9_IdentityIS4_ESt8equal_toIS4_ESaIS4_EE6resizeEm@Base 1.4
 _ZN9__gnu_cxx9hashtableIPKN4CVC48DatatypeES4_NS1_20DatatypeHashFunctionESt9_IdentityIS4_ESt8equal_toIS4_ESaIS4_EE12_M_copy_fromERKSB_@Base 1.4
 _ZN9__gnu_cxx9hashtableIPKN4CVC48DatatypeES4_NS1_20DatatypeHashFunctionESt9_IdentityIS4_ESt8equal_toIS4_ESaIS4_EE5eraseERKS4_@Base 1.4
 _ZN9__gnu_cxx9hashtableIPKN4CVC48DatatypeES4_NS1_20DatatypeHashFunctionESt9_IdentityIS4_ESt8equal_toIS4_ESaIS4_EE6resizeEm@Base 1.4
 _ZN9__gnu_cxx9hashtableISt4pairIKN4CVC44TypeES3_ES3_NS2_16TypeHashFunctionESt10_Select1stIS5_ESt8equal_toIS3_ESaIS3_EE14find_or_insertERKS5_@Base 1.4
 _ZN9__gnu_cxx9hashtableISt4pairIKN4CVC44TypeES3_ES3_NS2_16TypeHashFunctionESt10_Select1stIS5_ESt8equal_toIS3_ESaIS3_EE6resizeEm@Base 1.4
 _ZN9__gnu_cxx9hashtableISt4pairIKPKN4CVC48DatatypeES5_ES5_NS2_20DatatypeHashFunctionESt10_Select1stIS7_ESt8equal_toIS5_ESaIS5_EE14find_or_insertERKS7_@Base 1.4
 _ZN9__gnu_cxx9hashtableISt4pairIKPKN4CVC48DatatypeES5_ES5_NS2_20DatatypeHashFunctionESt10_Select1stIS7_ESt8equal_toIS5_ESaIS5_EE4findERS6_@Base 1.4
 _ZN9__gnu_cxx9hashtableISt4pairIKPKN4CVC48DatatypeES5_ES5_NS2_20DatatypeHashFunctionESt10_Select1stIS7_ESt8equal_toIS5_ESaIS5_EE6resizeEm@Base 1.4
 _ZN9__gnu_cxx9hashtableISt4pairIKPKN4CVC48DatatypeES5_ES5_NS2_20DatatypeHashFunctionESt10_Select1stIS7_ESt8equal_toIS5_ESaIS5_EED1Ev@Base 1.4
 _ZN9__gnu_cxx9hashtableISt4pairIKPKN4CVC48DatatypeES5_ES5_NS2_20DatatypeHashFunctionESt10_Select1stIS7_ESt8equal_toIS5_ESaIS5_EED2Ev@Base 1.4
 _ZN9__gnu_cxx9hashtableISt4pairIKiiEiNS_4hashIiEESt10_Select1stIS3_ESt8equal_toIiESaIiEE14find_or_insertERKS3_@Base 1.4
 _ZN9__gnu_cxx9hashtableISt4pairIKiiEiNS_4hashIiEESt10_Select1stIS3_ESt8equal_toIiESaIiEE6resizeEm@Base 1.4
 _ZN9__gnu_cxx9hashtableISt4pairIKijEiNS_4hashIiEESt10_Select1stIS3_ESt8equal_toIiESaIjEE12_M_copy_fromERKSB_@Base 1.4
 _ZN9__gnu_cxx9hashtableISt4pairIKijEiNS_4hashIiEESt10_Select1stIS3_ESt8equal_toIiESaIjEE14find_or_insertERKS3_@Base 1.4
 _ZN9__gnu_cxx9hashtableISt4pairIKijEiNS_4hashIiEESt10_Select1stIS3_ESt8equal_toIiESaIjEE5eraseERS2_@Base 1.4
 _ZN9__gnu_cxx9hashtableISt4pairIKijEiNS_4hashIiEESt10_Select1stIS3_ESt8equal_toIiESaIjEE6resizeEm@Base 1.4
 _ZN9__gnu_cxx9hashtableISt4pairIKijEiNS_4hashIiEESt10_Select1stIS3_ESt8equal_toIiESaIjEED1Ev@Base 1.4
 _ZN9__gnu_cxx9hashtableISt4pairIKijEiNS_4hashIiEESt10_Select1stIS3_ESt8equal_toIiESaIjEED2Ev@Base 1.4
 _ZN9__gnu_cxx9hashtableISt4pairIKjiEjNS_4hashIjEESt10_Select1stIS3_ESt8equal_toIjESaIiEE14find_or_insertERKS3_@Base 1.4
 _ZN9__gnu_cxx9hashtableISt4pairIKjiEjNS_4hashIjEESt10_Select1stIS3_ESt8equal_toIjESaIiEE6resizeEm@Base 1.4
 _ZN9__gnu_cxx9hashtableISt4pairIKjiEjNS_4hashIjEESt10_Select1stIS3_ESt8equal_toIjESaIiEED1Ev@Base 1.4
 _ZN9__gnu_cxx9hashtableISt4pairIKjiEjNS_4hashIjEESt10_Select1stIS3_ESt8equal_toIjESaIiEED2Ev@Base 1.4
 _ZN9__gnu_cxx9hashtableISt4pairIKjjEjNS_4hashIjEESt10_Select1stIS3_ESt8equal_toIjESaIjEE14find_or_insertERKS3_@Base 1.4
 _ZN9__gnu_cxx9hashtableISt4pairIKjjEjNS_4hashIjEESt10_Select1stIS3_ESt8equal_toIjESaIjEE6resizeEm@Base 1.4
 _ZN9__gnu_cxx9hashtableISt4pairIKmmEmNS_4hashImEESt10_Select1stIS3_ESt8equal_toImESaImEE14find_or_insertERKS3_@Base 1.4
 _ZN9__gnu_cxx9hashtableISt4pairIKmmEmNS_4hashImEESt10_Select1stIS3_ESt8equal_toImESaImEE6resizeEm@Base 1.4
 _ZN9__gnu_cxx9hashtableIiiNS_4hashIiEESt9_IdentityIiESt8equal_toIiESaIiEE13insert_uniqueERKi@Base 1.4
 _ZN9__gnu_cxx9hashtableIiiNS_4hashIiEESt9_IdentityIiESt8equal_toIiESaIiEE6resizeEm@Base 1.4
 _ZN9__gnu_cxx9hashtableIiiNS_4hashIiEESt9_IdentityIiESt8equal_toIiESaIiEED1Ev@Base 1.4
 _ZN9__gnu_cxx9hashtableIiiNS_4hashIiEESt9_IdentityIiESt8equal_toIiESaIiEED2Ev@Base 1.4
 _ZN9__gnu_cxx9hashtableImmNS_4hashImEESt9_IdentityImESt8equal_toImESaImEE6resizeEm@Base 1.4
 _ZN9__gnu_cxx9hashtableImmNS_4hashImEESt9_IdentityImESt8equal_toImESaImEEC1EmRKS2_RKS6_RKS7_@Base 1.4
 _ZN9__gnu_cxx9hashtableImmNS_4hashImEESt9_IdentityImESt8equal_toImESaImEEC2EmRKS2_RKS6_RKS7_@Base 1.4
 _ZN9__gnu_cxx9hashtableImmNS_4hashImEESt9_IdentityImESt8equal_toImESaImEED1Ev@Base 1.4
 _ZN9__gnu_cxx9hashtableImmNS_4hashImEESt9_IdentityImESt8equal_toImESaImEED2Ev@Base 1.4
 _ZNK4CVC410PopCommand14getCommandNameEv@Base 1.4
 _ZNK4CVC410PopCommand5cloneEv@Base 1.4
 _ZNK4CVC410RecordType9getRecordEv@Base 1.4
 _ZNK4CVC410TesterType12getRangeTypeEv@Base 1.4
 _ZNK4CVC410TesterType9getDomainEv@Base 1.4
 _ZNK4CVC411Cardinality20getFiniteCardinalityEv@Base 1.4
 _ZNK4CVC411Cardinality20knownLessThanOrEqualERKS0_@Base 1.4
 _ZNK4CVC411Cardinality7compareERKS0_@Base 1.4
 _ZNK4CVC411Cardinality8isFiniteEv@Base 1.4
 _ZNK4CVC411Cardinality8toStringEv@Base 1.4
 _ZNK4CVC411EchoCommand14getCommandNameEv@Base 1.4
 _ZNK4CVC411EchoCommand5cloneEv@Base 1.4
 _ZNK4CVC411EchoCommand9getOutputEv@Base 1.4
 _ZNK4CVC411ExprManager10getContextEv@Base 1.4
 _ZNK4CVC411ExprManager10getOptionsEv@Base 1.4
 _ZNK4CVC411ExprManager10stringTypeEv@Base 1.4
 _ZNK4CVC411ExprManager11booleanTypeEv@Base 1.4
 _ZNK4CVC411ExprManager11integerTypeEv@Base 1.4
 _ZNK4CVC411ExprManager11mkArrayTypeENS_4TypeES1_@Base 1.4
 _ZNK4CVC411ExprManager12getStatisticERKSs@Base 1.4
 _ZNK4CVC411ExprManager12mkTesterTypeENS_4TypeE@Base 1.4
 _ZNK4CVC411ExprManager13getStatisticsEv@Base 1.4
 _ZNK4CVC411ExprManager14getNodeManagerEv@Base 1.4
 _ZNK4CVC411ExprManager14mkSelectorTypeENS_4TypeES1_@Base 1.4
 _ZNK4CVC411ExprManager15mkBitVectorTypeEj@Base 1.4
 _ZNK4CVC411ExprManager17mkConstructorTypeERKNS_19DatatypeConstructorENS_4TypeE@Base 1.4
 _ZNK4CVC411ExprManager17mkSortConstructorERKSsm@Base 1.4
 _ZNK4CVC411ExprManager21checkResolvedDatatypeENS_12DatatypeTypeE@Base 1.4
 _ZNK4CVC411ExprManager6mkSortERKSsj@Base 1.4
 _ZNK4CVC411ExprManager8realTypeEv@Base 1.4
 _ZNK4CVC411ExprManager9mkSetTypeENS_4TypeE@Base 1.4
 _ZNK4CVC411PushCommand14getCommandNameEv@Base 1.4
 _ZNK4CVC411PushCommand5cloneEv@Base 1.4
 _ZNK4CVC411QuitCommand14getCommandNameEv@Base 1.4
 _ZNK4CVC411QuitCommand5cloneEv@Base 1.4
 _ZNK4CVC411SymbolTable10lookupTypeERKSs@Base 1.4
 _ZNK4CVC411SymbolTable10lookupTypeERKSsRKSt6vectorINS_4TypeESaIS4_EE@Base 1.4
 _ZNK4CVC411SymbolTable11isBoundTypeERKSs@Base 1.4
 _ZNK4CVC411SymbolTable22isBoundDefinedFunctionENS_4ExprE@Base 1.4
 _ZNK4CVC411SymbolTable22isBoundDefinedFunctionERKSs@Base 1.4
 _ZNK4CVC411SymbolTable6lookupERKSs@Base 1.4
 _ZNK4CVC411SymbolTable7isBoundERKSs@Base 1.4
 _ZNK4CVC411SymbolTable8getLevelEv@Base 1.4
 _ZNK4CVC412DatatypeType11getDatatypeEv@Base 1.4
 _ZNK4CVC412DatatypeType11instantiateERKSt6vectorINS_4TypeESaIS2_EE@Base 1.4
 _ZNK4CVC412DatatypeType12isParametricEv@Base 1.4
 _ZNK4CVC412DatatypeType13getParamTypesEv@Base 1.4
 _ZNK4CVC412DatatypeType14getConstructorESs@Base 1.4
 _ZNK4CVC412DatatypeType14isInstantiatedEv@Base 1.4
 _ZNK4CVC412DatatypeType23isParameterInstantiatedEj@Base 1.4
 _ZNK4CVC412DatatypeType8getArityEv@Base 1.4
 _ZNK4CVC412EmptyCommand14getCommandNameEv@Base 1.4
 _ZNK4CVC412EmptyCommand5cloneEv@Base 1.4
 _ZNK4CVC412EmptyCommand7getNameEv@Base 1.4
 _ZNK4CVC412FunctionType11getArgTypesEv@Base 1.4
 _ZNK4CVC412FunctionType12getRangeTypeEv@Base 1.4
 _ZNK4CVC412FunctionType8getArityEv@Base 1.4
 _ZNK4CVC412QueryCommand11printResultERSoj@Base 1.4
 _ZNK4CVC412QueryCommand14getCommandNameEv@Base 1.4
 _ZNK4CVC412QueryCommand5cloneEv@Base 1.4
 _ZNK4CVC412QueryCommand7getExprEv@Base 1.4
 _ZNK4CVC412QueryCommand9getResultEv@Base 1.4
 _ZNK4CVC412RecordSelect8getFieldEv@Base 1.4
 _ZNK4CVC412RecordUpdate8getFieldEv@Base 1.4
 _ZNK4CVC412SelectorType12getRangeTypeEv@Base 1.4
 _ZNK4CVC412SelectorType9getDomainEv@Base 1.4
 _ZNK4CVC412SubrangeType17getSubrangeBoundsEv@Base 1.4
 _ZNK4CVC413ArrayStoreAll7getExprEv@Base 1.4
 _ZNK4CVC413AssertCommand14getCommandNameEv@Base 1.4
 _ZNK4CVC413AssertCommand5cloneEv@Base 1.4
 _ZNK4CVC413AssertCommand7getExprEv@Base 1.4
 _ZNK4CVC413BitVectorType7getSizeEv@Base 1.4
 _ZNK4CVC413CommandStatus8toStreamERSoNS_8language6output8LanguageE@Base 1.4
 _ZNK4CVC413SubrangeBound8getBoundEv@Base 1.4
 _ZNK4CVC413SubrangeBoundeqERKS0_@Base 1.4
 _ZNK4CVC414CommandFailure5cloneEv@Base 1.4
 _ZNK4CVC414CommandSuccess5cloneEv@Base 1.4
 _ZNK4CVC414CommentCommand10getCommentEv@Base 1.4
 _ZNK4CVC414CommentCommand14getCommandNameEv@Base 1.4
 _ZNK4CVC414CommentCommand5cloneEv@Base 1.4
 _ZNK4CVC414GetInfoCommand11printResultERSoj@Base 1.4
 _ZNK4CVC414GetInfoCommand14getCommandNameEv@Base 1.4
 _ZNK4CVC414GetInfoCommand5cloneEv@Base 1.4
 _ZNK4CVC414GetInfoCommand7getFlagEv@Base 1.4
 _ZNK4CVC414GetInfoCommand9getResultEv@Base 1.4
 _ZNK4CVC414SetInfoCommand14getCommandNameEv@Base 1.4
 _ZNK4CVC414SetInfoCommand5cloneEv@Base 1.4
 _ZNK4CVC414SetInfoCommand7getFlagEv@Base 1.4
 _ZNK4CVC414SetInfoCommand8getSExprEv@Base 1.4
 _ZNK4CVC414StatisticsBase12getStatisticESs@Base 1.4
 _ZNK4CVC414StatisticsBase16flushInformationERSo@Base 1.4
 _ZNK4CVC414StatisticsBase3endEv@Base 1.4
 _ZNK4CVC414StatisticsBase5beginEv@Base 1.4
 _ZNK4CVC414StatisticsBase7StatCmpclEPKNS_4StatES4_@Base 1.4
 _ZNK4CVC414StatisticsBase8iteratordeEv@Base 1.4
 _ZNK4CVC415CheckSatCommand11printResultERSoj@Base 1.4
 _ZNK4CVC415CheckSatCommand14getCommandNameEv@Base 1.4
 _ZNK4CVC415CheckSatCommand5cloneEv@Base 1.4
 _ZNK4CVC415CheckSatCommand7getExprEv@Base 1.4
 _ZNK4CVC415CheckSatCommand9getResultEv@Base 1.4
 _ZNK4CVC415CommandSequence14getCommandNameEv@Base 1.4
 _ZNK4CVC415CommandSequence3endEv@Base 1.4
 _ZNK4CVC415CommandSequence5beginEv@Base 1.4
 _ZNK4CVC415CommandSequence5cloneEv@Base 1.4
 _ZNK4CVC415ConstructorType11getArgTypesEv@Base 1.4
 _ZNK4CVC415ConstructorType12getRangeTypeEv@Base 1.4
 _ZNK4CVC415ConstructorType8getArityEv@Base 1.4
 _ZNK4CVC415GetModelCommand11printResultERSoj@Base 1.4
 _ZNK4CVC415GetModelCommand14getCommandNameEv@Base 1.4
 _ZNK4CVC415GetModelCommand5cloneEv@Base 1.4
 _ZNK4CVC415GetProofCommand11printResultERSoj@Base 1.4
 _ZNK4CVC415GetProofCommand14getCommandNameEv@Base 1.4
 _ZNK4CVC415GetProofCommand5cloneEv@Base 1.4
 _ZNK4CVC415GetProofCommand9getResultEv@Base 1.4
 _ZNK4CVC415GetValueCommand11printResultERSoj@Base 1.4
 _ZNK4CVC415GetValueCommand14getCommandNameEv@Base 1.4
 _ZNK4CVC415GetValueCommand5cloneEv@Base 1.4
 _ZNK4CVC415GetValueCommand8getTermsEv@Base 1.4
 _ZNK4CVC415GetValueCommand9getResultEv@Base 1.4
 _ZNK4CVC415SimplifyCommand11printResultERSoj@Base 1.4
 _ZNK4CVC415SimplifyCommand14getCommandNameEv@Base 1.4
 _ZNK4CVC415SimplifyCommand5cloneEv@Base 1.4
 _ZNK4CVC415SimplifyCommand7getTermEv@Base 1.4
 _ZNK4CVC415SimplifyCommand9getResultEv@Base 1.4
 _ZNK4CVC416GetOptionCommand11printResultERSoj@Base 1.4
 _ZNK4CVC416GetOptionCommand14getCommandNameEv@Base 1.4
 _ZNK4CVC416GetOptionCommand5cloneEv@Base 1.4
 _ZNK4CVC416GetOptionCommand7getFlagEv@Base 1.4
 _ZNK4CVC416GetOptionCommand9getResultEv@Base 1.4
 _ZNK4CVC416SetOptionCommand14getCommandNameEv@Base 1.4
 _ZNK4CVC416SetOptionCommand5cloneEv@Base 1.4
 _ZNK4CVC416SetOptionCommand7getFlagEv@Base 1.4
 _ZNK4CVC416SetOptionCommand8getSExprEv@Base 1.4
 _ZNK4CVC416TypeHashFunctionclERKNS_4TypeE@Base 1.4
 _ZNK4CVC417DefineTypeCommand13getParametersEv@Base 1.4
 _ZNK4CVC417DefineTypeCommand14getCommandNameEv@Base 1.4
 _ZNK4CVC417DefineTypeCommand5cloneEv@Base 1.4
 _ZNK4CVC417DefineTypeCommand7getTypeEv@Base 1.4
 _ZNK4CVC418CommandUnsupported5cloneEv@Base 1.4
 _ZNK4CVC418DeclareTypeCommand14getCommandNameEv@Base 1.4
 _ZNK4CVC418DeclareTypeCommand5cloneEv@Base 1.4
 _ZNK4CVC418DeclareTypeCommand7getTypeEv@Base 1.4
 _ZNK4CVC418DeclareTypeCommand8getArityEv@Base 1.4
 _ZNK4CVC418RewriteRuleCommand11getTriggersEv@Base 1.4
 _ZNK4CVC418RewriteRuleCommand14getCommandNameEv@Base 1.4
 _ZNK4CVC418RewriteRuleCommand5cloneEv@Base 1.4
 _ZNK4CVC418RewriteRuleCommand7getBodyEv@Base 1.4
 _ZNK4CVC418RewriteRuleCommand7getHeadEv@Base 1.4
 _ZNK4CVC418RewriteRuleCommand7getVarsEv@Base 1.4
 _ZNK4CVC418RewriteRuleCommand9getGuardsEv@Base 1.4
 _ZNK4CVC419DatatypeConstructor10isResolvedEv@Base 1.4
 _ZNK4CVC419DatatypeConstructor11getSelectorESs@Base 1.4
 _ZNK4CVC419DatatypeConstructor12mkGroundTermENS_4TypeE@Base 1.4
 _ZNK4CVC419DatatypeConstructor13getTesterNameEv@Base 1.4
 _ZNK4CVC419DatatypeConstructor13isWellFoundedEv@Base 1.4
 _ZNK4CVC419DatatypeConstructor14getCardinalityEv@Base 1.4
 _ZNK4CVC419DatatypeConstructor14getConstructorEv@Base 1.4
 _ZNK4CVC419DatatypeConstructor20involvesExternalTypeEv@Base 1.4
 _ZNK4CVC419DatatypeConstructor29getSpecializedConstructorTypeENS_4TypeE@Base 1.4
 _ZNK4CVC419DatatypeConstructor7getNameEv@Base 1.4
 _ZNK4CVC419DatatypeConstructor8isFiniteEv@Base 1.4
 _ZNK4CVC419DatatypeConstructor9getTesterEv@Base 1.4
 _ZNK4CVC419DatatypeConstructorixESs@Base 1.4
 _ZNK4CVC419DatatypeConstructorixEm@Base 1.4
 _ZNK4CVC419GetUnsatCoreCommand11printResultERSoj@Base 1.4
 _ZNK4CVC419GetUnsatCoreCommand14getCommandNameEv@Base 1.4
 _ZNK4CVC419GetUnsatCoreCommand5cloneEv@Base 1.4
 _ZNK4CVC419SortConstructorType11instantiateERKSt6vectorINS_4TypeESaIS2_EE@Base 1.4
 _ZNK4CVC419SortConstructorType7getNameEv@Base 1.4
 _ZNK4CVC419SortConstructorType8getArityEv@Base 1.4
 _ZNK4CVC420GetAssertionsCommand11printResultERSoj@Base 1.4
 _ZNK4CVC420GetAssertionsCommand14getCommandNameEv@Base 1.4
 _ZNK4CVC420GetAssertionsCommand5cloneEv@Base 1.4
 _ZNK4CVC420GetAssertionsCommand9getResultEv@Base 1.4
 _ZNK4CVC420GetAssignmentCommand11printResultERSoj@Base 1.4
 _ZNK4CVC420GetAssignmentCommand14getCommandNameEv@Base 1.4
 _ZNK4CVC420GetAssignmentCommand5cloneEv@Base 1.4
 _ZNK4CVC420GetAssignmentCommand9getResultEv@Base 1.4
 _ZNK4CVC420PropagateRuleCommand11getTriggersEv@Base 1.4
 _ZNK4CVC420PropagateRuleCommand11isDeductionEv@Base 1.4
 _ZNK4CVC420PropagateRuleCommand14getCommandNameEv@Base 1.4
 _ZNK4CVC420PropagateRuleCommand5cloneEv@Base 1.4
 _ZNK4CVC420PropagateRuleCommand7getBodyEv@Base 1.4
 _ZNK4CVC420PropagateRuleCommand7getVarsEv@Base 1.4
 _ZNK4CVC420PropagateRuleCommand8getHeadsEv@Base 1.4
 _ZNK4CVC420PropagateRuleCommand9getGuardsEv@Base 1.4
 _ZNK4CVC421DefineFunctionCommand10getFormalsEv@Base 1.4
 _ZNK4CVC421DefineFunctionCommand10getFormulaEv@Base 1.4
 _ZNK4CVC421DefineFunctionCommand11getFunctionEv@Base 1.4
 _ZNK4CVC421DefineFunctionCommand14getCommandNameEv@Base 1.4
 _ZNK4CVC421DefineFunctionCommand5cloneEv@Base 1.4
 _ZNK4CVC421PredicateHashFunctionclERKNS_9PredicateE@Base 1.4
 _ZNK4CVC421TypeCheckingException13getExpressionEv@Base 1.4
 _ZNK4CVC421TypeCheckingException8toStreamERSo@Base 1.4
 _ZNK4CVC422DatatypeConstructorArg11getSelectorEv@Base 1.4
 _ZNK4CVC422DatatypeConstructorArg11getTypeNameEv@Base 1.4
 _ZNK4CVC422DatatypeConstructorArg14getConstructorEv@Base 1.4
 _ZNK4CVC422DatatypeConstructorArg16isUnresolvedSelfEv@Base 1.4
 _ZNK4CVC422DatatypeConstructorArg7getNameEv@Base 1.4
 _ZNK4CVC422DatatypeConstructorArg7getTypeEv@Base 1.4
 _ZNK4CVC422DeclareFunctionCommand11getFunctionEv@Base 1.4
 _ZNK4CVC422DeclareFunctionCommand14getCommandNameEv@Base 1.4
 _ZNK4CVC422DeclareFunctionCommand15getPrintInModelEv@Base 1.4
 _ZNK4CVC422DeclareFunctionCommand24getPrintInModelSetByUserEv@Base 1.4
 _ZNK4CVC422DeclareFunctionCommand5cloneEv@Base 1.4
 _ZNK4CVC422DeclareFunctionCommand7getTypeEv@Base 1.4
 _ZNK4CVC423SetUserAttributeCommand14getCommandNameEv@Base 1.4
 _ZNK4CVC423SetUserAttributeCommand5cloneEv@Base 1.4
 _ZNK4CVC424ExpandDefinitionsCommand11printResultERSoj@Base 1.4
 _ZNK4CVC424ExpandDefinitionsCommand14getCommandNameEv@Base 1.4
 _ZNK4CVC424ExpandDefinitionsCommand5cloneEv@Base 1.4
 _ZNK4CVC424ExpandDefinitionsCommand7getTermEv@Base 1.4
 _ZNK4CVC424ExpandDefinitionsCommand9getResultEv@Base 1.4
 _ZNK4CVC424GetInstantiationsCommand11printResultERSoj@Base 1.4
 _ZNK4CVC424GetInstantiationsCommand14getCommandNameEv@Base 1.4
 _ZNK4CVC424GetInstantiationsCommand5cloneEv@Base 1.4
 _ZNK4CVC424SetBenchmarkLogicCommand14getCommandNameEv@Base 1.4
 _ZNK4CVC424SetBenchmarkLogicCommand5cloneEv@Base 1.4
 _ZNK4CVC424SetBenchmarkLogicCommand8getLogicEv@Base 1.4
 _ZNK4CVC425SetBenchmarkStatusCommand14getCommandNameEv@Base 1.4
 _ZNK4CVC425SetBenchmarkStatusCommand5cloneEv@Base 1.4
 _ZNK4CVC425SetBenchmarkStatusCommand9getStatusEv@Base 1.4
 _ZNK4CVC426DatatypeDeclarationCommand12getDatatypesEv@Base 1.4
 _ZNK4CVC426DatatypeDeclarationCommand14getCommandNameEv@Base 1.4
 _ZNK4CVC426DatatypeDeclarationCommand5cloneEv@Base 1.4
 _ZNK4CVC426DefineNamedFunctionCommand5cloneEv@Base 1.4
 _ZNK4CVC428DeclarationDefinitionCommand9getSymbolEv@Base 1.4
 _ZNK4CVC44Expr10isVariableEv@Base 1.4
 _ZNK4CVC44Expr10substituteEN9__gnu_cxx8hash_mapIS0_S0_NS_16ExprHashFunctionESt8equal_toIS0_ESaIS0_EEE@Base 1.4
 _ZNK4CVC44Expr10substituteES0_S0_@Base 1.4
 _ZNK4CVC44Expr10substituteESt6vectorIS0_SaIS0_EERKS3_@Base 1.4
 _ZNK4CVC44Expr11getOperatorEv@Base 1.4
 _ZNK4CVC44Expr11hasOperatorEv@Base 1.4
 _ZNK4CVC44Expr14const_iteratordeEv@Base 1.4
 _ZNK4CVC44Expr14const_iteratoreqERKS1_@Base 1.4
 _ZNK4CVC44Expr14getExprManagerEv@Base 1.4
 _ZNK4CVC44Expr14getNumChildrenEv@Base 1.4
 _ZNK4CVC44Expr3endEv@Base 1.4
 _ZNK4CVC44Expr5beginEv@Base 1.4
 _ZNK4CVC44Expr5getIdEv@Base 1.4
 _ZNK4CVC44Expr6isNullEv@Base 1.4
 _ZNK4CVC44Expr6orExprERKS0_@Base 1.4
 _ZNK4CVC44Expr7andExprERKS0_@Base 1.4
 _ZNK4CVC44Expr7getKindEv@Base 1.4
 _ZNK4CVC44Expr7getNodeEv@Base 1.4
 _ZNK4CVC44Expr7getTypeEb@Base 1.4
 _ZNK4CVC44Expr7iffExprERKS0_@Base 1.4
 _ZNK4CVC44Expr7impExprERKS0_@Base 1.4
 _ZNK4CVC44Expr7isConstEv@Base 1.4
 _ZNK4CVC44Expr7iteExprERKS0_S2_@Base 1.4
 _ZNK4CVC44Expr7notExprEv@Base 1.4
 _ZNK4CVC44Expr7xorExprERKS0_@Base 1.4
 _ZNK4CVC44Expr8exportToEPNS_11ExprManagerERNS_24ExprManagerMapCollectionEj@Base 1.4
 _ZNK4CVC44Expr8getConstINS_11TupleSelectEEERKT_v@Base 1.4
 _ZNK4CVC44Expr8getConstINS_11TupleUpdateEEERKT_v@Base 1.4
 _ZNK4CVC44Expr8getConstINS_12RecordSelectEEERKT_v@Base 1.4
 _ZNK4CVC44Expr8getConstINS_12RecordUpdateEEERKT_v@Base 1.4
 _ZNK4CVC44Expr8getConstINS_12TypeConstantEEERKT_v@Base 1.4
 _ZNK4CVC44Expr8getConstINS_13AbstractValueEEERKT_v@Base 1.4
 _ZNK4CVC44Expr8getConstINS_13ArrayStoreAllEEERKT_v@Base 1.4
 _ZNK4CVC44Expr8getConstINS_13BitVectorSizeEEERKT_v@Base 1.4
 _ZNK4CVC44Expr8getConstINS_14AscriptionTypeEEERKT_v@Base 1.4
 _ZNK4CVC44Expr8getConstINS_14BitVectorBitOfEEERKT_v@Base 1.4
 _ZNK4CVC44Expr8getConstINS_14IntToBitVectorEEERKT_v@Base 1.4
 _ZNK4CVC44Expr8getConstINS_14SubrangeBoundsEEERKT_v@Base 1.4
 _ZNK4CVC44Expr8getConstINS_15BitVectorRepeatEEERKT_v@Base 1.4
 _ZNK4CVC44Expr8getConstINS_16BitVectorExtractEEERKT_v@Base 1.4
 _ZNK4CVC44Expr8getConstINS_19BitVectorRotateLeftEEERKT_v@Base 1.4
 _ZNK4CVC44Expr8getConstINS_19BitVectorSignExtendEEERKT_v@Base 1.4
 _ZNK4CVC44Expr8getConstINS_19BitVectorZeroExtendEEERKT_v@Base 1.4
 _ZNK4CVC44Expr8getConstINS_20BitVectorRotateRightEEERKT_v@Base 1.4
 _ZNK4CVC44Expr8getConstINS_21UninterpretedConstantEEERKT_v@Base 1.4
 _ZNK4CVC44Expr8getConstINS_4kind6Kind_tEEERKT_v@Base 1.4
 _ZNK4CVC44Expr8getConstINS_5ChainEEERKT_v@Base 1.4
 _ZNK4CVC44Expr8getConstINS_6RecordEEERKT_v@Base 1.4
 _ZNK4CVC44Expr8getConstINS_6RegExpEEERKT_v@Base 1.4
 _ZNK4CVC44Expr8getConstINS_6StringEEERKT_v@Base 1.4
 _ZNK4CVC44Expr8getConstINS_8DatatypeEEERKT_v@Base 1.4
 _ZNK4CVC44Expr8getConstINS_8EmptySetEEERKT_v@Base 1.4
 _ZNK4CVC44Expr8getConstINS_8RationalEEERKT_v@Base 1.4
 _ZNK4CVC44Expr8getConstINS_9BitVectorEEERKT_v@Base 1.4
 _ZNK4CVC44Expr8getConstINS_9DivisibleEEERKT_v@Base 1.4
 _ZNK4CVC44Expr8getConstINS_9PredicateEEERKT_v@Base 1.4
 _ZNK4CVC44Expr8getConstIbEERKT_v@Base 1.4
 _ZNK4CVC44Expr8getTNodeEv@Base 1.4
 _ZNK4CVC44Expr8printAstERSoi@Base 1.4
 _ZNK4CVC44Expr8toStreamERSoibmNS_8language6output8LanguageE@Base 1.4
 _ZNK4CVC44Expr8toStringEv@Base 1.4
 _ZNK4CVC44ExpreqERKS0_@Base 1.4
 _ZNK4CVC44ExprgtERKS0_@Base 1.4
 _ZNK4CVC44ExprixEj@Base 1.4
 _ZNK4CVC44ExprltERKS0_@Base 1.4
 _ZNK4CVC44ExprneERKS0_@Base 1.4
 _ZNK4CVC44Type10isDatatypeEv@Base 1.4
 _ZNK4CVC44Type10isFunctionEv@Base 1.4
 _ZNK4CVC44Type10isSelectorEv@Base 1.4
 _ZNK4CVC44Type10isSubrangeEv@Base 1.4
 _ZNK4CVC44Type10substituteERKS0_S2_@Base 1.4
 _ZNK4CVC44Type10substituteERKSt6vectorIS0_SaIS0_EES5_@Base 1.4
 _ZNK4CVC44Type11getBaseTypeEv@Base 1.4
 _ZNK4CVC44Type11isBitVectorEv@Base 1.4
 _ZNK4CVC44Type11isPredicateEv@Base 1.4
 _ZNK4CVC44Type11isSubtypeOfES0_@Base 1.4
 _ZNK4CVC44Type12mkGroundTermEv@Base 1.4
 _ZNK4CVC44Type13isConstructorEv@Base 1.4
 _ZNK4CVC44Type13isWellFoundedEv@Base 1.4
 _ZNK4CVC44Type14getCardinalityEv@Base 1.4
 _ZNK4CVC44Type14getExprManagerEv@Base 1.4
 _ZNK4CVC44Type14isComparableToES0_@Base 1.4
 _ZNK4CVC44Type17isSortConstructorEv@Base 1.4
 _ZNK4CVC44Type5isSetEv@Base 1.4
 _ZNK4CVC44Type6isNullEv@Base 1.4
 _ZNK4CVC44Type6isRealEv@Base 1.4
 _ZNK4CVC44Type6isSortEv@Base 1.4
 _ZNK4CVC44Type7isArrayEv@Base 1.4
 _ZNK4CVC44Type7isSExprEv@Base 1.4
 _ZNK4CVC44Type7isTupleEv@Base 1.4
 _ZNK4CVC44Type8exportToEPNS_11ExprManagerERNS_24ExprManagerMapCollectionE@Base 1.4
 _ZNK4CVC44Type8isRecordEv@Base 1.4
 _ZNK4CVC44Type8isStringEv@Base 1.4
 _ZNK4CVC44Type8isTesterEv@Base 1.4
 _ZNK4CVC44Type8makeTypeERKNS_8TypeNodeE@Base 1.4
 _ZNK4CVC44Type8toStreamERSo@Base 1.4
 _ZNK4CVC44Type8toStringEv@Base 1.4
 _ZNK4CVC44Type9isBooleanEv@Base 1.4
 _ZNK4CVC44Type9isIntegerEv@Base 1.4
 _ZNK4CVC44TypeeqERKS0_@Base 1.4
 _ZNK4CVC44TypegeERKS0_@Base 1.4
 _ZNK4CVC44TypegtERKS0_@Base 1.4
 _ZNK4CVC44TypeleERKS0_@Base 1.4
 _ZNK4CVC44TypeltERKS0_@Base 1.4
 _ZNK4CVC44TypeneERKS0_@Base 1.4
 _ZNK4CVC44expr6pickle10MapPickler13variableToMapEm@Base 1.4
 _ZNK4CVC44expr6pickle10MapPickler15variableFromMapEm@Base 1.4
 _ZNK4CVC44expr6pickle7Pickler13variableToMapEm@Base 1.4
 _ZNK4CVC44expr6pickle7Pickler15variableFromMapEm@Base 1.4
 _ZNK4CVC45SExpr8getValueEv@Base 1.4
 _ZNK4CVC46Record8getIndexESs@Base 1.4
 _ZNK4CVC46Result10whyUnknownEv@Base 1.4
 _ZNK4CVC46Result16asValidityResultEv@Base 1.4
 _ZNK4CVC46Result22asSatisfiabilityResultEv@Base 1.4
 _ZNK4CVC46Result8toStringEv@Base 1.4
 _ZNK4CVC46ResulteqERKS0_@Base 1.4
 _ZNK4CVC46String10getCharSetERSt3setIjSt4lessIjESaIjEE@Base 1.4
 _ZNK4CVC46String4findERKS0_i@Base 1.4
 _ZNK4CVC46String6concatERKS0_@Base 1.4
 _ZNK4CVC46String6substrEj@Base 1.4
 _ZNK4CVC46String6substrEjj@Base 1.4
 _ZNK4CVC46String7overlapERS0_@Base 1.4
 _ZNK4CVC46String7replaceERKS0_S2_@Base 1.4
 _ZNK4CVC46String8rstrncmpERKS0_j@Base 1.4
 _ZNK4CVC46String8toStringEv@Base 1.4
 _ZNK4CVC47Command11printResultERSoj@Base 1.4
 _ZNK4CVC47Command2okEv@Base 1.4
 _ZNK4CVC47Command4failEv@Base 1.4
 _ZNK4CVC47Command8toStreamERSoibmNS_8language6output8LanguageE@Base 1.4
 _ZNK4CVC47Command8toStringEv@Base 1.4
 _ZNK4CVC47Integer12getSignedIntEv@Base 1.4
 _ZNK4CVC47Integer13fitsSignedIntEv@Base 1.4
 _ZNK4CVC47Integer14getUnsignedIntEv@Base 1.4
 _ZNK4CVC47Integer15fitsUnsignedIntEv@Base 1.4
 _ZNK4CVC47Integer15getUnsignedLongEv@Base 1.4
 _ZNK4CVC47Integer23euclidianDivideQuotientERKS0_@Base 1.4
 _ZNK4CVC47Integer24euclidianDivideRemainderERKS0_@Base 1.4
 _ZNK4CVC47Integer3absEv@Base 1.4
 _ZNK4CVC47Integer6lengthEv@Base 1.4
 _ZNK4CVC47Integer7getLongEv@Base 1.4
 _ZNK4CVC47Integer9modByPow2Ej@Base 1.4
 _ZNK4CVC47IntegermiERKS0_@Base 1.4
 _ZNK4CVC47Options10getOptionsEv@Base 1.4
 _ZNK4CVC47Options12wasSetByUserINS_7options12in__option_tEEEbT_@Base 1.4
 _ZNK4CVC47Options12wasSetByUserINS_7options13err__option_tEEEbT_@Base 1.4
 _ZNK4CVC47Options12wasSetByUserINS_7options13out__option_tEEEbT_@Base 1.4
 _ZNK4CVC47Options12wasSetByUserINS_7options14cbqi__option_tEEEbT_@Base 1.4
 _ZNK4CVC47Options12wasSetByUserINS_7options14help__option_tEEEbT_@Base 1.4
 _ZNK4CVC47Options12wasSetByUserINS_7options15proof__option_tEEEbT_@Base 1.4
 _ZNK4CVC47Options12wasSetByUserINS_7options15useFC__option_tEEEbT_@Base 1.4
 _ZNK4CVC47Options12wasSetByUserINS_7options16useSOI__option_tEEEbT_@Base 1.4
 _ZNK4CVC47Options12wasSetByUserINS_7options17newProp__option_tEEEbT_@Base 1.4
 _ZNK4CVC47Options12wasSetByUserINS_7options17qcfMode__option_tEEEbT_@Base 1.4
 _ZNK4CVC47Options12wasSetByUserINS_7options17rrTurns__option_tEEEbT_@Base 1.4
 _ZNK4CVC47Options12wasSetByUserINS_7options17threads__option_tEEEbT_@Base 1.4
 _ZNK4CVC47Options12wasSetByUserINS_7options17version__option_tEEEbT_@Base 1.4
 _ZNK4CVC47Options12wasSetByUserINS_7options18cnfQuant__option_tEEEbT_@Base 1.4
 _ZNK4CVC47Options12wasSetByUserINS_7options18mbqiMode__option_tEEEbT_@Base 1.4
 _ZNK4CVC47Options12wasSetByUserINS_7options18nnfQuant__option_tEEEbT_@Base 1.4
 _ZNK4CVC47Options12wasSetByUserINS_7options18segvSpin__option_tEEEbT_@Base 1.4
 _ZNK4CVC47Options12wasSetByUserINS_7options18stringLB__option_tEEEbT_@Base 1.4
 _ZNK4CVC47Options12wasSetByUserINS_7options19bvNumFunc__option_tEEEbT_@Base 1.4
 _ZNK4CVC47Options12wasSetByUserINS_7options19dioRepeat__option_tEEEbT_@Base 1.4
 _ZNK4CVC47Options12wasSetByUserINS_7options19doITESimp__option_tEEEbT_@Base 1.4
 _ZNK4CVC47Options12wasSetByUserINS_7options19earlyExit__option_tEEEbT_@Base 1.4
 _ZNK4CVC47Options12wasSetByUserINS_7options19memoryMap__option_tEEEbT_@Base 1.4
 _ZNK4CVC47Options12wasSetByUserINS_7options19parseOnly__option_tEEEbT_@Base 1.4
 _ZNK4CVC47Options12wasSetByUserINS_7options19replayLog__option_tEEEbT_@Base 1.4
 _ZNK4CVC47Options12wasSetByUserINS_7options19stringEIT__option_tEEEbT_@Base 1.4
 _ZNK4CVC47Options12wasSetByUserINS_7options19stringExp__option_tEEEbT_@Base 1.4
 _ZNK4CVC47Options12wasSetByUserINS_7options19stringFMF__option_tEEEbT_@Base 1.4
 _ZNK4CVC47Options12wasSetByUserINS_7options19thread_id__option_tEEEbT_@Base 1.4
 _ZNK4CVC47Options12wasSetByUserINS_7options19useApprox__option_tEEEbT_@Base 1.4
 _ZNK4CVC47Options12wasSetByUserINS_7options19verbosity__option_tEEEbT_@Base 1.4
 _ZNK4CVC47Options12wasSetByUserINS_7options20dumpModels__option_tEEEbT_@Base 1.4
 _ZNK4CVC47Options12wasSetByUserINS_7options20dumpProofs__option_tEEEbT_@Base 1.4
 _ZNK4CVC47Options12wasSetByUserINS_7options20fmfInstGen__option_tEEEbT_@Base 1.4
 _ZNK4CVC47Options12wasSetByUserINS_7options20forceLogic__option_tEEEbT_@Base 1.4
 _ZNK4CVC47Options12wasSetByUserINS_7options20pbRewrites__option_tEEEbT_@Base 1.4
 _ZNK4CVC47Options12wasSetByUserINS_7options20repeatSimp__option_tEEEbT_@Base 1.4
 _ZNK4CVC47Options12wasSetByUserINS_7options20statistics__option_tEEEbT_@Base 1.4
 _ZNK4CVC47Options12wasSetByUserINS_7options20stringOpt1__option_tEEEbT_@Base 1.4
 _ZNK4CVC47Options12wasSetByUserINS_7options20stringOpt2__option_tEEEbT_@Base 1.4
 _ZNK4CVC47Options12wasSetByUserINS_7options20threadArgv__option_tEEEbT_@Base 1.4
 _ZNK4CVC47Options12wasSetByUserINS_7options20unsatCores__option_tEEEbT_@Base 1.4
 _ZNK4CVC47Options12wasSetByUserINS_7options20waitToJoin__option_tEEEbT_@Base 1.4
 _ZNK4CVC47Options12wasSetByUserINS_7options21binary_name__option_tEEEbT_@Base 1.4
 _ZNK4CVC47Options12wasSetByUserINS_7options21checkModels__option_tEEEbT_@Base 1.4
 _ZNK4CVC47Options12wasSetByUserINS_7options21checkProofs__option_tEEEbT_@Base 1.4
 _ZNK4CVC47Options12wasSetByUserINS_7options21clauseSplit__option_tEEEbT_@Base 1.4
 _ZNK4CVC47Options12wasSetByUserINS_7options21fmfBoundInt__option_tEEEbT_@Base 1.4
 _ZNK4CVC47Options12wasSetByUserINS_7options21foPropQuant__option_tEEEbT_@Base 1.4
 _ZNK4CVC47Options12wasSetByUserINS_7options21interactive__option_tEEEbT_@Base 1.4
 _ZNK4CVC47Options12wasSetByUserINS_7options21macrosQuant__option_tEEEbT_@Base 1.4
 _ZNK4CVC47Options12wasSetByUserINS_7options21prenexQuant__option_tEEEbT_@Base 1.4
 _ZNK4CVC47Options12wasSetByUserINS_7options21qcfWhenMode__option_tEEEbT_@Base 1.4
 _ZNK4CVC47Options12wasSetByUserINS_7options21recurseCbqi__option_tEEEbT_@Base 1.4
 _ZNK4CVC47Options12wasSetByUserINS_7options21rewriteDivk__option_tEEEbT_@Base 1.4
 _ZNK4CVC47Options12wasSetByUserINS_7options21satVarDecay__option_tEEEbT_@Base 1.4
 _ZNK4CVC47Options12wasSetByUserINS_7options21ufssRegions__option_tEEEbT_@Base 1.4
 _ZNK4CVC47Options12wasSetByUserINS_7options22arithMLTrick__option_tEEEbT_@Base 1.4
 _ZNK4CVC47Options12wasSetByUserINS_7options22bitblastMode__option_tEEEbT_@Base 1.4
 _ZNK4CVC47Options12wasSetByUserINS_7options22bitvectorAig__option_tEEEbT_@Base 1.4
 _ZNK4CVC47Options12wasSetByUserINS_7options22compressItes__option_tEEEbT_@Base 1.4
 _ZNK4CVC47Options12wasSetByUserINS_7options22decisionMode__option_tEEEbT_@Base 1.4
 _ZNK4CVC47Options12wasSetByUserINS_7options22flipDecision__option_tEEEbT_@Base 1.4
 _ZNK4CVC47Options12wasSetByUserINS_7options22fmfFmcSimple__option_tEEEbT_@Base 1.4
 _ZNK4CVC47Options12wasSetByUserINS_7options22idlRewriteEq__option_tEEEbT_@Base 1.4
 _ZNK4CVC47Options12wasSetByUserINS_7options22instMaxLevel__option_tEEEbT_@Base 1.4
 _ZNK4CVC47Options12wasSetByUserINS_7options22instWhenMode__option_tEEEbT_@Base 1.4
 _ZNK4CVC47Options12wasSetByUserINS_7options22internalReps__option_tEEEbT_@Base 1.4
 _ZNK4CVC47Options12wasSetByUserINS_7options22languageHelp__option_tEEEbT_@Base 1.4
 _ZNK4CVC47Options12wasSetByUserINS_7options22printSuccess__option_tEEEbT_@Base 1.4
 _ZNK4CVC47Options12wasSetByUserINS_7options22replayStream__option_tEEEbT_@Base 1.4
 _ZNK4CVC47Options12wasSetByUserINS_7options22theoryOfMode__option_tEEEbT_@Base 1.4
 _ZNK4CVC47Options12wasSetByUserINS_7options22typeChecking__option_tEEEbT_@Base 1.4
 _ZNK4CVC47Options12wasSetByUserINS_7options22ufssFairness__option_tEEEbT_@Base 1.4
 _ZNK4CVC47Options12wasSetByUserINS_7options22ufssSymBreak__option_tEEEbT_@Base 1.4
 _ZNK4CVC47Options12wasSetByUserINS_7options22ufssTotality__option_tEEEbT_@Base 1.4
 _ZNK4CVC47Options12wasSetByUserINS_7options22varElimQuant__option_tEEEbT_@Base 1.4
 _ZNK4CVC47Options12wasSetByUserINS_7options23axiomInstMode__option_tEEEbT_@Base 1.4
 _ZNK4CVC47Options12wasSetByUserINS_7options23bvAbstraction__option_tEEEbT_@Base 1.4
 _ZNK4CVC47Options12wasSetByUserINS_7options23collectPivots__option_tEEEbT_@Base 1.4
 _ZNK4CVC47Options12wasSetByUserINS_7options23fmfInstEngine__option_tEEEbT_@Base 1.4
 _ZNK4CVC47Options12wasSetByUserINS_7options23havePenalties__option_tEEEbT_@Base 1.4
 _ZNK4CVC47Options12wasSetByUserINS_7options23inputLanguage__option_tEEEbT_@Base 1.4
 _ZNK4CVC47Options12wasSetByUserINS_7options23maxReplayTree__option_tEEEbT_@Base 1.4
 _ZNK4CVC47Options12wasSetByUserINS_7options23produceModels__option_tEEEbT_@Base 1.4
 _ZNK4CVC47Options12wasSetByUserINS_7options23satRandomFreq__option_tEEEbT_@Base 1.4
 _ZNK4CVC47Options12wasSetByUserINS_7options23satRandomSeed__option_tEEEbT_@Base 1.4
 _ZNK4CVC47Options12wasSetByUserINS_7options23satRestartInc__option_tEEEbT_@Base 1.4
 _ZNK4CVC47Options12wasSetByUserINS_7options23setsPropagate__option_tEEEbT_@Base 1.4
 _ZNK4CVC47Options12wasSetByUserINS_7options23smartTriggers__option_tEEEbT_@Base 1.4
 _ZNK4CVC47Options12wasSetByUserINS_7options23sortInference__option_tEEEbT_@Base 1.4
 _ZNK4CVC47Options12wasSetByUserINS_7options23strictParsing__option_tEEEbT_@Base 1.4
 _ZNK4CVC47Options12wasSetByUserINS_7options24abstractValues__option_tEEEbT_@Base 1.4
 _ZNK4CVC47Options12wasSetByUserINS_7options24arithDioSolver__option_tEEEbT_@Base 1.4
 _ZNK4CVC47Options12wasSetByUserINS_7options24arithRewriteEq__option_tEEEbT_@Base 1.4
 _ZNK4CVC47Options12wasSetByUserINS_7options24dioSolverTurns__option_tEEEbT_@Base 1.4
 _ZNK4CVC47Options12wasSetByUserINS_7options24dtStcInduction__option_tEEEbT_@Base 1.4
 _ZNK4CVC47Options12wasSetByUserINS_7options24eagerInstQuant__option_tEEEbT_@Base 1.4
 _ZNK4CVC47Options12wasSetByUserINS_7options24instFormatMode__option_tEEEbT_@Base 1.4
 _ZNK4CVC47Options12wasSetByUserINS_7options24maxApproxDepth__option_tEEEbT_@Base 1.4
 _ZNK4CVC47Options12wasSetByUserINS_7options24minisatUseElim__option_tEEEbT_@Base 1.4
 _ZNK4CVC47Options12wasSetByUserINS_7options24miniscopeQuant__option_tEEEbT_@Base 1.4
 _ZNK4CVC47Options12wasSetByUserINS_7options24outputLanguage__option_tEEEbT_@Base 1.4
 _ZNK4CVC47Options12wasSetByUserINS_7options24preSkolemQuant__option_tEEEbT_@Base 1.4
 _ZNK4CVC47Options12wasSetByUserINS_7options24preprocessOnly__option_tEEEbT_@Base 1.4
 _ZNK4CVC47Options12wasSetByUserINS_7options24qcfTConstraint__option_tEEEbT_@Base 1.4
 _ZNK4CVC47Options12wasSetByUserINS_7options24replayFilename__option_tEEEbT_@Base 1.4
 _ZNK4CVC47Options12wasSetByUserINS_7options24satClauseDecay__option_tEEEbT_@Base 1.4
 _ZNK4CVC47Options12wasSetByUserINS_7options24semanticChecks__option_tEEEbT_@Base 1.4
 _ZNK4CVC47Options12wasSetByUserINS_7options24statsHideZeros__option_tEEEbT_@Base 1.4
 _ZNK4CVC47Options12wasSetByUserINS_7options25bitvectorToBool__option_tEEEbT_@Base 1.4
 _ZNK4CVC47Options12wasSetByUserINS_7options25bvIntroducePow2__option_tEEEbT_@Base 1.4
 _ZNK4CVC47Options12wasSetByUserINS_7options25doCutAllBounded__option_tEEEbT_@Base 1.4
 _ZNK4CVC47Options12wasSetByUserINS_7options25finiteModelFind__option_tEEEbT_@Base 1.4
 _ZNK4CVC47Options12wasSetByUserINS_7options25fmfBoundIntLazy__option_tEEEbT_@Base 1.4
 _ZNK4CVC47Options12wasSetByUserINS_7options25modelFormatMode__option_tEEEbT_@Base 1.4
 _ZNK4CVC47Options12wasSetByUserINS_7options25satRestartFirst__option_tEEEbT_@Base 1.4
 _ZNK4CVC47Options12wasSetByUserINS_7options25setsEagerLemmas__option_tEEEbT_@Base 1.4
 _ZNK4CVC47Options12wasSetByUserINS_7options25soiQuickExplain__option_tEEEbT_@Base 1.4
 _ZNK4CVC47Options12wasSetByUserINS_7options25statsEveryQuery__option_tEEEbT_@Base 1.4
 _ZNK4CVC47Options12wasSetByUserINS_7options25threadStackSize__option_tEEEbT_@Base 1.4
 _ZNK4CVC47Options12wasSetByUserINS_7options25ufssEagerSplits__option_tEEEbT_@Base 1.4
 _ZNK4CVC47Options12wasSetByUserINS_7options26arraysModelBased__option_tEEEbT_@Base 1.4
 _ZNK4CVC47Options12wasSetByUserINS_7options26biasedITERemoval__option_tEEEbT_@Base 1.4
 _ZNK4CVC47Options12wasSetByUserINS_7options26decisionStopOnly__option_tEEEbT_@Base 1.4
 _ZNK4CVC47Options12wasSetByUserINS_7options26defaultDagThresh__option_tEEEbT_@Base 1.4
 _ZNK4CVC47Options12wasSetByUserINS_7options26defaultExprDepth__option_tEEEbT_@Base 1.4
 _ZNK4CVC47Options12wasSetByUserINS_7options26doStaticLearning__option_tEEEbT_@Base 1.4
 _ZNK4CVC47Options12wasSetByUserINS_7options26filesystemAccess__option_tEEEbT_@Base 1.4
 _ZNK4CVC47Options12wasSetByUserINS_7options26literalMatchMode__option_tEEEbT_@Base 1.4
 _ZNK4CVC47Options12wasSetByUserINS_7options26maxCutsInContext__option_tEEEbT_@Base 1.4
 _ZNK4CVC47Options12wasSetByUserINS_7options26relevantTriggers__option_tEEEbT_@Base 1.4
 _ZNK4CVC47Options12wasSetByUserINS_7options26restrictedPivots__option_tEEEbT_@Base 1.4
 _ZNK4CVC47Options12wasSetByUserINS_7options26theoryAlternates__option_tEEEbT_@Base 1.4
 _ZNK4CVC47Options12wasSetByUserINS_7options26ufssCliqueSplits__option_tEEEbT_@Base 1.4
 _ZNK4CVC47Options12wasSetByUserINS_7options26ufssMinimalModel__option_tEEEbT_@Base 1.4
 _ZNK4CVC47Options12wasSetByUserINS_7options27arraysEagerLemmas__option_tEEEbT_@Base 1.4
 _ZNK4CVC47Options12wasSetByUserINS_7options27arraysLazyRIntro1__option_tEEEbT_@Base 1.4
 _ZNK4CVC47Options12wasSetByUserINS_7options27decisionThreshold__option_tEEEbT_@Base 1.4
 _ZNK4CVC47Options12wasSetByUserINS_7options27decisionUseWeight__option_tEEEbT_@Base 1.4
 _ZNK4CVC47Options12wasSetByUserINS_7options27doITESimpOnRepeat__option_tEEEbT_@Base 1.4
 _ZNK4CVC47Options12wasSetByUserINS_7options27dtForceAssignment__option_tEEEbT_@Base 1.4
 _ZNK4CVC47Options12wasSetByUserINS_7options27dtRewriteErrorSel__option_tEEEbT_@Base 1.4
 _ZNK4CVC47Options12wasSetByUserINS_7options27earlyTypeChecking__option_tEEEbT_@Base 1.4
 _ZNK4CVC47Options12wasSetByUserINS_7options27expandDefinitions__option_tEEEbT_@Base 1.4
 _ZNK4CVC47Options12wasSetByUserINS_7options27fmfFreshDistConst__option_tEEEbT_@Base 1.4
 _ZNK4CVC47Options12wasSetByUserINS_7options27fullSaturateQuant__option_tEEEbT_@Base 1.4
 _ZNK4CVC47Options12wasSetByUserINS_7options27interactivePrompt__option_tEEEbT_@Base 1.4
 _ZNK4CVC47Options12wasSetByUserINS_7options27lemmaInputChannel__option_tEEEbT_@Base 1.4
 _ZNK4CVC47Options12wasSetByUserINS_7options27minisatDumpDimacs__option_tEEEbT_@Base 1.4
 _ZNK4CVC47Options12wasSetByUserINS_7options27quantConflictFind__option_tEEEbT_@Base 1.4
 _ZNK4CVC47Options12wasSetByUserINS_7options27quantRewriteRules__option_tEEEbT_@Base 1.4
 _ZNK4CVC47Options12wasSetByUserINS_7options27revertArithModels__option_tEEEbT_@Base 1.4
 _ZNK4CVC47Options12wasSetByUserINS_7options27rrOneInstPerRound__option_tEEEbT_@Base 1.4
 _ZNK4CVC47Options12wasSetByUserINS_7options27ufSymmetryBreaker__option_tEEEbT_@Base 1.4
 _ZNK4CVC47Options12wasSetByUserINS_7options27ufssSimpleCliques__option_tEEEbT_@Base 1.4
 _ZNK4CVC47Options12wasSetByUserINS_7options27unconstrainedSimp__option_tEEEbT_@Base 1.4
 _ZNK4CVC47Options12wasSetByUserINS_7options27userPatternsQuant__option_tEEEbT_@Base 1.4
 _ZNK4CVC47Options12wasSetByUserINS_7options28bitvectorPropagate__option_tEEEbT_@Base 1.4
 _ZNK4CVC47Options12wasSetByUserINS_7options28continuedExecution__option_tEEEbT_@Base 1.4
 _ZNK4CVC47Options12wasSetByUserINS_7options28dumpInstantiations__option_tEEEbT_@Base 1.4
 _ZNK4CVC47Options12wasSetByUserINS_7options28fallbackSequential__option_tEEEbT_@Base 1.4
 _ZNK4CVC47Options12wasSetByUserINS_7options28fmfOneInstPerRound__option_tEEEbT_@Base 1.4
 _ZNK4CVC47Options12wasSetByUserINS_7options28incrementalSolving__option_tEEEbT_@Base 1.4
 _ZNK4CVC47Options12wasSetByUserINS_7options28lemmaOutputChannel__option_tEEEbT_@Base 1.4
 _ZNK4CVC47Options12wasSetByUserINS_7options28lemmaRejectCutSize__option_tEEEbT_@Base 1.4
 _ZNK4CVC47Options12wasSetByUserINS_7options28pbRewriteThreshold__option_tEEEbT_@Base 1.4
 _ZNK4CVC47Options12wasSetByUserINS_7options28ppAssertMaxSubSize__option_tEEEbT_@Base 1.4
 _ZNK4CVC47Options12wasSetByUserINS_7options28produceAssignments__option_tEEEbT_@Base 1.4
 _ZNK4CVC47Options12wasSetByUserINS_7options28relationalTriggers__option_tEEEbT_@Base 1.4
 _ZNK4CVC47Options12wasSetByUserINS_7options28replayFailureLemma__option_tEEEbT_@Base 1.4
 _ZNK4CVC47Options12wasSetByUserINS_7options28simpleIteLiftQuant__option_tEEEbT_@Base 1.4
 _ZNK4CVC47Options12wasSetByUserINS_7options28simplificationMode__option_tEEEbT_@Base 1.4
 _ZNK4CVC47Options12wasSetByUserINS_7options28skolemizeArguments__option_tEEEbT_@Base 1.4
 _ZNK4CVC47Options12wasSetByUserINS_7options29arithPivotThreshold__option_tEEEbT_@Base 1.4
 _ZNK4CVC47Options12wasSetByUserINS_7options29arithUnateLemmaMode__option_tEEEbT_@Base 1.4
 _ZNK4CVC47Options12wasSetByUserINS_7options29bvEagerExplanations__option_tEEEbT_@Base 1.4
 _ZNK4CVC47Options12wasSetByUserINS_7options29fmfOneQuantPerRound__option_tEEEbT_@Base 1.4
 _ZNK4CVC47Options12wasSetByUserINS_7options29incrementalParallel__option_tEEEbT_@Base 1.4
 _ZNK4CVC47Options12wasSetByUserINS_7options29modelUninterpDtEnum__option_tEEEbT_@Base 1.4
 _ZNK4CVC47Options12wasSetByUserINS_7options29replayRejectCutSize__option_tEEEbT_@Base 1.4
 _ZNK4CVC47Options12wasSetByUserINS_7options29rewriteApplyToConst__option_tEEEbT_@Base 1.4
 _ZNK4CVC47Options12wasSetByUserINS_7options29tearDownIncremental__option_tEEEbT_@Base 1.4
 _ZNK4CVC47Options12wasSetByUserINS_7options29ufssTotalityLimited__option_tEEEbT_@Base 1.4
 _ZNK4CVC47Options12wasSetByUserINS_7options29zombieHuntThreshold__option_tEEEbT_@Base 1.4
 _ZNK4CVC47Options12wasSetByUserINS_7options30arithHeuristicPivots__option_tEEEbT_@Base 1.4
 _ZNK4CVC47Options12wasSetByUserINS_7options30arithPropagationMode__option_tEEEbT_@Base 1.4
 _ZNK4CVC47Options12wasSetByUserINS_7options30arraysOptimizeLinear__option_tEEEbT_@Base 1.4
 _ZNK4CVC47Options12wasSetByUserINS_7options30bitvectorQuickXplain__option_tEEEbT_@Base 1.4
 _ZNK4CVC47Options12wasSetByUserINS_7options30decisionRandomWeight__option_tEEEbT_@Base 1.4
 _ZNK4CVC47Options12wasSetByUserINS_7options30perCallResourceLimit__option_tEEEbT_@Base 1.4
 _ZNK4CVC47Options12wasSetByUserINS_7options30replayFailurePenalty__option_tEEEbT_@Base 1.4
 _ZNK4CVC47Options12wasSetByUserINS_7options30sat_refine_conflicts__option_tEEEbT_@Base 1.4
 _ZNK4CVC47Options12wasSetByUserINS_7options30ufssAbortCardinality__option_tEEEbT_@Base 1.4
 _ZNK4CVC47Options12wasSetByUserINS_7options30ufssDiseqPropagation__option_tEEEbT_@Base 1.4
 _ZNK4CVC47Options12wasSetByUserINS_7options30ufssExplainedCliques__option_tEEEbT_@Base 1.4
 _ZNK4CVC47Options12wasSetByUserINS_7options30ufssTotalitySymBreak__option_tEEEbT_@Base 1.4
 _ZNK4CVC47Options12wasSetByUserINS_7options31miniscopeQuantFreeVar__option_tEEEbT_@Base 1.4
 _ZNK4CVC47Options12wasSetByUserINS_7options31sharingFilterByLength__option_tEEEbT_@Base 1.4
 _ZNK4CVC47Options12wasSetByUserINS_7options31soiApproxMajorFailure__option_tEEEbT_@Base 1.4
 _ZNK4CVC47Options12wasSetByUserINS_7options31soiApproxMinorFailure__option_tEEEbT_@Base 1.4
 _ZNK4CVC47Options12wasSetByUserINS_7options31stringCharCardinality__option_tEEEbT_@Base 1.4
 _ZNK4CVC47Options12wasSetByUserINS_7options32arithPropAsLemmaLength__option_tEEEbT_@Base 1.4
 _ZNK4CVC47Options12wasSetByUserINS_7options32condenseFunctionValues__option_tEEEbT_@Base 1.4
 _ZNK4CVC47Options12wasSetByUserINS_7options32decisionWeightInternal__option_tEEEbT_@Base 1.4
 _ZNK4CVC47Options12wasSetByUserINS_7options32registerQuantBodyTerms__option_tEEEbT_@Base 1.4
 _ZNK4CVC47Options12wasSetByUserINS_7options32replayEarlyCloseDepths__option_tEEEbT_@Base 1.4
 _ZNK4CVC47Options12wasSetByUserINS_7options33arithErrorSelectionRule__option_tEEEbT_@Base 1.4
 _ZNK4CVC47Options12wasSetByUserINS_7options33arithPropagateMaxLength__option_tEEEbT_@Base 1.4
 _ZNK4CVC47Options12wasSetByUserINS_7options33arithSimplexCheckPeriod__option_tEEEbT_@Base 1.4
 _ZNK4CVC47Options12wasSetByUserINS_7options33bitvectorDivByZeroConst__option_tEEEbT_@Base 1.4
 _ZNK4CVC47Options12wasSetByUserINS_7options33bitvectorEqualitySlicer__option_tEEEbT_@Base 1.4
 _ZNK4CVC47Options12wasSetByUserINS_7options33bitvectorEqualitySolver__option_tEEEbT_@Base 1.4
 _ZNK4CVC47Options12wasSetByUserINS_7options33cumulativeResourceLimit__option_tEEEbT_@Base 1.4
 _ZNK4CVC47Options12wasSetByUserINS_7options33exportDioDecompositions__option_tEEEbT_@Base 1.4
 _ZNK4CVC47Options12wasSetByUserINS_7options33perCallMillisecondLimit__option_tEEEbT_@Base 1.4
 _ZNK4CVC47Options12wasSetByUserINS_7options33simplifyWithCareEnabled__option_tEEEbT_@Base 1.4
 _ZNK4CVC47Options12wasSetByUserINS_7options34aggressiveMiniscopeQuant__option_tEEEbT_@Base 1.4
 _ZNK4CVC47Options12wasSetByUserINS_7options34bitvectorAlgebraicBudget__option_tEEEbT_@Base 1.4
 _ZNK4CVC47Options12wasSetByUserINS_7options34bitvectorAlgebraicSolver__option_tEEEbT_@Base 1.4
 _ZNK4CVC47Options12wasSetByUserINS_7options34forceNoLimitCpuWhileDump__option_tEEEbT_@Base 1.4
 _ZNK4CVC47Options12wasSetByUserINS_7options34soiApproxMajorFailurePen__option_tEEEbT_@Base 1.4
 _ZNK4CVC47Options12wasSetByUserINS_7options34soiApproxMinorFailurePen__option_tEEEbT_@Base 1.4
 _ZNK4CVC47Options12wasSetByUserINS_7options35arithMLTrickSubstitutions__option_tEEEbT_@Base 1.4
 _ZNK4CVC47Options12wasSetByUserINS_7options35arraysEagerIndexSplitting__option_tEEEbT_@Base 1.4
 _ZNK4CVC47Options12wasSetByUserINS_7options35bitvectorInequalitySolver__option_tEEEbT_@Base 1.4
 _ZNK4CVC47Options12wasSetByUserINS_7options35booleanTermConversionMode__option_tEEEbT_@Base 1.4
 _ZNK4CVC47Options12wasSetByUserINS_7options35trySolveIntStandardEffort__option_tEEEbT_@Base 1.4
 _ZNK4CVC47Options12wasSetByUserINS_7options36cumulativeMillisecondLimit__option_tEEEbT_@Base 1.4
 _ZNK4CVC47Options12wasSetByUserINS_7options36fmfInstGenOneQuantPerRound__option_tEEEbT_@Base 1.4
 _ZNK4CVC47Options12wasSetByUserINS_7options37bitvectorAigSimplifications__option_tEEEbT_@Base 1.4
 _ZNK4CVC47Options12wasSetByUserINS_7options37replayNumericFailurePenalty__option_tEEEbT_@Base 1.4
 _ZNK4CVC47Options12wasSetByUserINS_7options42arithStandardCheckVarOrderPivots__option_tEEEbT_@Base 1.4
 _ZNK4CVC47Options14getDescriptionEv@Base 1.4
 _ZNK4CVC47OptionsixINS_7options12in__option_tEEERKNT_4typeES4_@Base 1.4
 _ZNK4CVC47OptionsixINS_7options13err__option_tEEERKNT_4typeES4_@Base 1.4
 _ZNK4CVC47OptionsixINS_7options13out__option_tEEERKNT_4typeES4_@Base 1.4
 _ZNK4CVC47OptionsixINS_7options14cbqi__option_tEEERKNT_4typeES4_@Base 1.4
 _ZNK4CVC47OptionsixINS_7options14help__option_tEEERKNT_4typeES4_@Base 1.4
 _ZNK4CVC47OptionsixINS_7options15proof__option_tEEERKNT_4typeES4_@Base 1.4
 _ZNK4CVC47OptionsixINS_7options15useFC__option_tEEERKNT_4typeES4_@Base 1.4
 _ZNK4CVC47OptionsixINS_7options16useSOI__option_tEEERKNT_4typeES4_@Base 1.4
 _ZNK4CVC47OptionsixINS_7options17newProp__option_tEEERKNT_4typeES4_@Base 1.4
 _ZNK4CVC47OptionsixINS_7options17qcfMode__option_tEEERKNT_4typeES4_@Base 1.4
 _ZNK4CVC47OptionsixINS_7options17rrTurns__option_tEEERKNT_4typeES4_@Base 1.4
 _ZNK4CVC47OptionsixINS_7options17threads__option_tEEERKNT_4typeES4_@Base 1.4
 _ZNK4CVC47OptionsixINS_7options17version__option_tEEERKNT_4typeES4_@Base 1.4
 _ZNK4CVC47OptionsixINS_7options18cnfQuant__option_tEEERKNT_4typeES4_@Base 1.4
 _ZNK4CVC47OptionsixINS_7options18mbqiMode__option_tEEERKNT_4typeES4_@Base 1.4
 _ZNK4CVC47OptionsixINS_7options18nnfQuant__option_tEEERKNT_4typeES4_@Base 1.4
 _ZNK4CVC47OptionsixINS_7options18segvSpin__option_tEEERKNT_4typeES4_@Base 1.4
 _ZNK4CVC47OptionsixINS_7options18stringLB__option_tEEERKNT_4typeES4_@Base 1.4
 _ZNK4CVC47OptionsixINS_7options19bvNumFunc__option_tEEERKNT_4typeES4_@Base 1.4
 _ZNK4CVC47OptionsixINS_7options19dioRepeat__option_tEEERKNT_4typeES4_@Base 1.4
 _ZNK4CVC47OptionsixINS_7options19doITESimp__option_tEEERKNT_4typeES4_@Base 1.4
 _ZNK4CVC47OptionsixINS_7options19earlyExit__option_tEEERKNT_4typeES4_@Base 1.4
 _ZNK4CVC47OptionsixINS_7options19memoryMap__option_tEEERKNT_4typeES4_@Base 1.4
 _ZNK4CVC47OptionsixINS_7options19parseOnly__option_tEEERKNT_4typeES4_@Base 1.4
 _ZNK4CVC47OptionsixINS_7options19replayLog__option_tEEERKNT_4typeES4_@Base 1.4
 _ZNK4CVC47OptionsixINS_7options19stringEIT__option_tEEERKNT_4typeES4_@Base 1.4
 _ZNK4CVC47OptionsixINS_7options19stringExp__option_tEEERKNT_4typeES4_@Base 1.4
 _ZNK4CVC47OptionsixINS_7options19stringFMF__option_tEEERKNT_4typeES4_@Base 1.4
 _ZNK4CVC47OptionsixINS_7options19thread_id__option_tEEERKNT_4typeES4_@Base 1.4
 _ZNK4CVC47OptionsixINS_7options19useApprox__option_tEEERKNT_4typeES4_@Base 1.4
 _ZNK4CVC47OptionsixINS_7options19verbosity__option_tEEERKNT_4typeES4_@Base 1.4
 _ZNK4CVC47OptionsixINS_7options20dumpModels__option_tEEERKNT_4typeES4_@Base 1.4
 _ZNK4CVC47OptionsixINS_7options20dumpProofs__option_tEEERKNT_4typeES4_@Base 1.4
 _ZNK4CVC47OptionsixINS_7options20fmfInstGen__option_tEEERKNT_4typeES4_@Base 1.4
 _ZNK4CVC47OptionsixINS_7options20forceLogic__option_tEEERKNT_4typeES4_@Base 1.4
 _ZNK4CVC47OptionsixINS_7options20pbRewrites__option_tEEERKNT_4typeES4_@Base 1.4
 _ZNK4CVC47OptionsixINS_7options20repeatSimp__option_tEEERKNT_4typeES4_@Base 1.4
 _ZNK4CVC47OptionsixINS_7options20statistics__option_tEEERKNT_4typeES4_@Base 1.4
 _ZNK4CVC47OptionsixINS_7options20stringOpt1__option_tEEERKNT_4typeES4_@Base 1.4
 _ZNK4CVC47OptionsixINS_7options20stringOpt2__option_tEEERKNT_4typeES4_@Base 1.4
 _ZNK4CVC47OptionsixINS_7options20threadArgv__option_tEEERKNT_4typeES4_@Base 1.4
 _ZNK4CVC47OptionsixINS_7options20unsatCores__option_tEEERKNT_4typeES4_@Base 1.4
 _ZNK4CVC47OptionsixINS_7options20waitToJoin__option_tEEERKNT_4typeES4_@Base 1.4
 _ZNK4CVC47OptionsixINS_7options21binary_name__option_tEEERKNT_4typeES4_@Base 1.4
 _ZNK4CVC47OptionsixINS_7options21checkModels__option_tEEERKNT_4typeES4_@Base 1.4
 _ZNK4CVC47OptionsixINS_7options21checkProofs__option_tEEERKNT_4typeES4_@Base 1.4
 _ZNK4CVC47OptionsixINS_7options21clauseSplit__option_tEEERKNT_4typeES4_@Base 1.4
 _ZNK4CVC47OptionsixINS_7options21fmfBoundInt__option_tEEERKNT_4typeES4_@Base 1.4
 _ZNK4CVC47OptionsixINS_7options21foPropQuant__option_tEEERKNT_4typeES4_@Base 1.4
 _ZNK4CVC47OptionsixINS_7options21interactive__option_tEEERKNT_4typeES4_@Base 1.4
 _ZNK4CVC47OptionsixINS_7options21macrosQuant__option_tEEERKNT_4typeES4_@Base 1.4
 _ZNK4CVC47OptionsixINS_7options21prenexQuant__option_tEEERKNT_4typeES4_@Base 1.4
 _ZNK4CVC47OptionsixINS_7options21qcfWhenMode__option_tEEERKNT_4typeES4_@Base 1.4
 _ZNK4CVC47OptionsixINS_7options21recurseCbqi__option_tEEERKNT_4typeES4_@Base 1.4
 _ZNK4CVC47OptionsixINS_7options21rewriteDivk__option_tEEERKNT_4typeES4_@Base 1.4
 _ZNK4CVC47OptionsixINS_7options21satVarDecay__option_tEEERKNT_4typeES4_@Base 1.4
 _ZNK4CVC47OptionsixINS_7options21ufssRegions__option_tEEERKNT_4typeES4_@Base 1.4
 _ZNK4CVC47OptionsixINS_7options22arithMLTrick__option_tEEERKNT_4typeES4_@Base 1.4
 _ZNK4CVC47OptionsixINS_7options22bitblastMode__option_tEEERKNT_4typeES4_@Base 1.4
 _ZNK4CVC47OptionsixINS_7options22bitvectorAig__option_tEEERKNT_4typeES4_@Base 1.4
 _ZNK4CVC47OptionsixINS_7options22compressItes__option_tEEERKNT_4typeES4_@Base 1.4
 _ZNK4CVC47OptionsixINS_7options22decisionMode__option_tEEERKNT_4typeES4_@Base 1.4
 _ZNK4CVC47OptionsixINS_7options22flipDecision__option_tEEERKNT_4typeES4_@Base 1.4
 _ZNK4CVC47OptionsixINS_7options22fmfFmcSimple__option_tEEERKNT_4typeES4_@Base 1.4
 _ZNK4CVC47OptionsixINS_7options22idlRewriteEq__option_tEEERKNT_4typeES4_@Base 1.4
 _ZNK4CVC47OptionsixINS_7options22instMaxLevel__option_tEEERKNT_4typeES4_@Base 1.4
 _ZNK4CVC47OptionsixINS_7options22instWhenMode__option_tEEERKNT_4typeES4_@Base 1.4
 _ZNK4CVC47OptionsixINS_7options22internalReps__option_tEEERKNT_4typeES4_@Base 1.4
 _ZNK4CVC47OptionsixINS_7options22languageHelp__option_tEEERKNT_4typeES4_@Base 1.4
 _ZNK4CVC47OptionsixINS_7options22printSuccess__option_tEEERKNT_4typeES4_@Base 1.4
 _ZNK4CVC47OptionsixINS_7options22replayStream__option_tEEERKNT_4typeES4_@Base 1.4
 _ZNK4CVC47OptionsixINS_7options22theoryOfMode__option_tEEERKNT_4typeES4_@Base 1.4
 _ZNK4CVC47OptionsixINS_7options22typeChecking__option_tEEERKNT_4typeES4_@Base 1.4
 _ZNK4CVC47OptionsixINS_7options22ufssFairness__option_tEEERKNT_4typeES4_@Base 1.4
 _ZNK4CVC47OptionsixINS_7options22ufssSymBreak__option_tEEERKNT_4typeES4_@Base 1.4
 _ZNK4CVC47OptionsixINS_7options22ufssTotality__option_tEEERKNT_4typeES4_@Base 1.4
 _ZNK4CVC47OptionsixINS_7options22varElimQuant__option_tEEERKNT_4typeES4_@Base 1.4
 _ZNK4CVC47OptionsixINS_7options23axiomInstMode__option_tEEERKNT_4typeES4_@Base 1.4
 _ZNK4CVC47OptionsixINS_7options23bvAbstraction__option_tEEERKNT_4typeES4_@Base 1.4
 _ZNK4CVC47OptionsixINS_7options23collectPivots__option_tEEERKNT_4typeES4_@Base 1.4
 _ZNK4CVC47OptionsixINS_7options23fmfInstEngine__option_tEEERKNT_4typeES4_@Base 1.4
 _ZNK4CVC47OptionsixINS_7options23havePenalties__option_tEEERKNT_4typeES4_@Base 1.4
 _ZNK4CVC47OptionsixINS_7options23inputLanguage__option_tEEERKNT_4typeES4_@Base 1.4
 _ZNK4CVC47OptionsixINS_7options23maxReplayTree__option_tEEERKNT_4typeES4_@Base 1.4
 _ZNK4CVC47OptionsixINS_7options23produceModels__option_tEEERKNT_4typeES4_@Base 1.4
 _ZNK4CVC47OptionsixINS_7options23satRandomFreq__option_tEEERKNT_4typeES4_@Base 1.4
 _ZNK4CVC47OptionsixINS_7options23satRandomSeed__option_tEEERKNT_4typeES4_@Base 1.4
 _ZNK4CVC47OptionsixINS_7options23satRestartInc__option_tEEERKNT_4typeES4_@Base 1.4
 _ZNK4CVC47OptionsixINS_7options23setsPropagate__option_tEEERKNT_4typeES4_@Base 1.4
 _ZNK4CVC47OptionsixINS_7options23smartTriggers__option_tEEERKNT_4typeES4_@Base 1.4
 _ZNK4CVC47OptionsixINS_7options23sortInference__option_tEEERKNT_4typeES4_@Base 1.4
 _ZNK4CVC47OptionsixINS_7options23strictParsing__option_tEEERKNT_4typeES4_@Base 1.4
 _ZNK4CVC47OptionsixINS_7options24abstractValues__option_tEEERKNT_4typeES4_@Base 1.4
 _ZNK4CVC47OptionsixINS_7options24arithDioSolver__option_tEEERKNT_4typeES4_@Base 1.4
 _ZNK4CVC47OptionsixINS_7options24arithRewriteEq__option_tEEERKNT_4typeES4_@Base 1.4
 _ZNK4CVC47OptionsixINS_7options24dioSolverTurns__option_tEEERKNT_4typeES4_@Base 1.4
 _ZNK4CVC47OptionsixINS_7options24dtStcInduction__option_tEEERKNT_4typeES4_@Base 1.4
 _ZNK4CVC47OptionsixINS_7options24eagerInstQuant__option_tEEERKNT_4typeES4_@Base 1.4
 _ZNK4CVC47OptionsixINS_7options24instFormatMode__option_tEEERKNT_4typeES4_@Base 1.4
 _ZNK4CVC47OptionsixINS_7options24maxApproxDepth__option_tEEERKNT_4typeES4_@Base 1.4
 _ZNK4CVC47OptionsixINS_7options24minisatUseElim__option_tEEERKNT_4typeES4_@Base 1.4
 _ZNK4CVC47OptionsixINS_7options24miniscopeQuant__option_tEEERKNT_4typeES4_@Base 1.4
 _ZNK4CVC47OptionsixINS_7options24outputLanguage__option_tEEERKNT_4typeES4_@Base 1.4
 _ZNK4CVC47OptionsixINS_7options24preSkolemQuant__option_tEEERKNT_4typeES4_@Base 1.4
 _ZNK4CVC47OptionsixINS_7options24preprocessOnly__option_tEEERKNT_4typeES4_@Base 1.4
 _ZNK4CVC47OptionsixINS_7options24qcfTConstraint__option_tEEERKNT_4typeES4_@Base 1.4
 _ZNK4CVC47OptionsixINS_7options24replayFilename__option_tEEERKNT_4typeES4_@Base 1.4
 _ZNK4CVC47OptionsixINS_7options24satClauseDecay__option_tEEERKNT_4typeES4_@Base 1.4
 _ZNK4CVC47OptionsixINS_7options24semanticChecks__option_tEEERKNT_4typeES4_@Base 1.4
 _ZNK4CVC47OptionsixINS_7options24statsHideZeros__option_tEEERKNT_4typeES4_@Base 1.4
 _ZNK4CVC47OptionsixINS_7options25bitvectorToBool__option_tEEERKNT_4typeES4_@Base 1.4
 _ZNK4CVC47OptionsixINS_7options25bvIntroducePow2__option_tEEERKNT_4typeES4_@Base 1.4
 _ZNK4CVC47OptionsixINS_7options25doCutAllBounded__option_tEEERKNT_4typeES4_@Base 1.4
 _ZNK4CVC47OptionsixINS_7options25finiteModelFind__option_tEEERKNT_4typeES4_@Base 1.4
 _ZNK4CVC47OptionsixINS_7options25fmfBoundIntLazy__option_tEEERKNT_4typeES4_@Base 1.4
 _ZNK4CVC47OptionsixINS_7options25modelFormatMode__option_tEEERKNT_4typeES4_@Base 1.4
 _ZNK4CVC47OptionsixINS_7options25satRestartFirst__option_tEEERKNT_4typeES4_@Base 1.4
 _ZNK4CVC47OptionsixINS_7options25setsEagerLemmas__option_tEEERKNT_4typeES4_@Base 1.4
 _ZNK4CVC47OptionsixINS_7options25soiQuickExplain__option_tEEERKNT_4typeES4_@Base 1.4
 _ZNK4CVC47OptionsixINS_7options25statsEveryQuery__option_tEEERKNT_4typeES4_@Base 1.4
 _ZNK4CVC47OptionsixINS_7options25threadStackSize__option_tEEERKNT_4typeES4_@Base 1.4
 _ZNK4CVC47OptionsixINS_7options25ufssEagerSplits__option_tEEERKNT_4typeES4_@Base 1.4
 _ZNK4CVC47OptionsixINS_7options26arraysModelBased__option_tEEERKNT_4typeES4_@Base 1.4
 _ZNK4CVC47OptionsixINS_7options26biasedITERemoval__option_tEEERKNT_4typeES4_@Base 1.4
 _ZNK4CVC47OptionsixINS_7options26decisionStopOnly__option_tEEERKNT_4typeES4_@Base 1.4
 _ZNK4CVC47OptionsixINS_7options26defaultDagThresh__option_tEEERKNT_4typeES4_@Base 1.4
 _ZNK4CVC47OptionsixINS_7options26defaultExprDepth__option_tEEERKNT_4typeES4_@Base 1.4
 _ZNK4CVC47OptionsixINS_7options26doStaticLearning__option_tEEERKNT_4typeES4_@Base 1.4
 _ZNK4CVC47OptionsixINS_7options26filesystemAccess__option_tEEERKNT_4typeES4_@Base 1.4
 _ZNK4CVC47OptionsixINS_7options26literalMatchMode__option_tEEERKNT_4typeES4_@Base 1.4
 _ZNK4CVC47OptionsixINS_7options26maxCutsInContext__option_tEEERKNT_4typeES4_@Base 1.4
 _ZNK4CVC47OptionsixINS_7options26relevantTriggers__option_tEEERKNT_4typeES4_@Base 1.4
 _ZNK4CVC47OptionsixINS_7options26restrictedPivots__option_tEEERKNT_4typeES4_@Base 1.4
 _ZNK4CVC47OptionsixINS_7options26theoryAlternates__option_tEEERKNT_4typeES4_@Base 1.4
 _ZNK4CVC47OptionsixINS_7options26ufssCliqueSplits__option_tEEERKNT_4typeES4_@Base 1.4
 _ZNK4CVC47OptionsixINS_7options26ufssMinimalModel__option_tEEERKNT_4typeES4_@Base 1.4
 _ZNK4CVC47OptionsixINS_7options27arraysEagerLemmas__option_tEEERKNT_4typeES4_@Base 1.4
 _ZNK4CVC47OptionsixINS_7options27arraysLazyRIntro1__option_tEEERKNT_4typeES4_@Base 1.4
 _ZNK4CVC47OptionsixINS_7options27decisionThreshold__option_tEEERKNT_4typeES4_@Base 1.4
 _ZNK4CVC47OptionsixINS_7options27decisionUseWeight__option_tEEERKNT_4typeES4_@Base 1.4
 _ZNK4CVC47OptionsixINS_7options27doITESimpOnRepeat__option_tEEERKNT_4typeES4_@Base 1.4
 _ZNK4CVC47OptionsixINS_7options27dtForceAssignment__option_tEEERKNT_4typeES4_@Base 1.4
 _ZNK4CVC47OptionsixINS_7options27dtRewriteErrorSel__option_tEEERKNT_4typeES4_@Base 1.4
 _ZNK4CVC47OptionsixINS_7options27earlyTypeChecking__option_tEEERKNT_4typeES4_@Base 1.4
 _ZNK4CVC47OptionsixINS_7options27expandDefinitions__option_tEEERKNT_4typeES4_@Base 1.4
 _ZNK4CVC47OptionsixINS_7options27fmfFreshDistConst__option_tEEERKNT_4typeES4_@Base 1.4
 _ZNK4CVC47OptionsixINS_7options27fullSaturateQuant__option_tEEERKNT_4typeES4_@Base 1.4
 _ZNK4CVC47OptionsixINS_7options27interactivePrompt__option_tEEERKNT_4typeES4_@Base 1.4
 _ZNK4CVC47OptionsixINS_7options27lemmaInputChannel__option_tEEERKNT_4typeES4_@Base 1.4
 _ZNK4CVC47OptionsixINS_7options27minisatDumpDimacs__option_tEEERKNT_4typeES4_@Base 1.4
 _ZNK4CVC47OptionsixINS_7options27quantConflictFind__option_tEEERKNT_4typeES4_@Base 1.4
 _ZNK4CVC47OptionsixINS_7options27quantRewriteRules__option_tEEERKNT_4typeES4_@Base 1.4
 _ZNK4CVC47OptionsixINS_7options27revertArithModels__option_tEEERKNT_4typeES4_@Base 1.4
 _ZNK4CVC47OptionsixINS_7options27rrOneInstPerRound__option_tEEERKNT_4typeES4_@Base 1.4
 _ZNK4CVC47OptionsixINS_7options27ufSymmetryBreaker__option_tEEERKNT_4typeES4_@Base 1.4
 _ZNK4CVC47OptionsixINS_7options27ufssSimpleCliques__option_tEEERKNT_4typeES4_@Base 1.4
 _ZNK4CVC47OptionsixINS_7options27unconstrainedSimp__option_tEEERKNT_4typeES4_@Base 1.4
 _ZNK4CVC47OptionsixINS_7options27userPatternsQuant__option_tEEERKNT_4typeES4_@Base 1.4
 _ZNK4CVC47OptionsixINS_7options28bitvectorPropagate__option_tEEERKNT_4typeES4_@Base 1.4
 _ZNK4CVC47OptionsixINS_7options28continuedExecution__option_tEEERKNT_4typeES4_@Base 1.4
 _ZNK4CVC47OptionsixINS_7options28dumpInstantiations__option_tEEERKNT_4typeES4_@Base 1.4
 _ZNK4CVC47OptionsixINS_7options28fallbackSequential__option_tEEERKNT_4typeES4_@Base 1.4
 _ZNK4CVC47OptionsixINS_7options28fmfOneInstPerRound__option_tEEERKNT_4typeES4_@Base 1.4
 _ZNK4CVC47OptionsixINS_7options28incrementalSolving__option_tEEERKNT_4typeES4_@Base 1.4
 _ZNK4CVC47OptionsixINS_7options28lemmaOutputChannel__option_tEEERKNT_4typeES4_@Base 1.4
 _ZNK4CVC47OptionsixINS_7options28lemmaRejectCutSize__option_tEEERKNT_4typeES4_@Base 1.4
 _ZNK4CVC47OptionsixINS_7options28pbRewriteThreshold__option_tEEERKNT_4typeES4_@Base 1.4
 _ZNK4CVC47OptionsixINS_7options28ppAssertMaxSubSize__option_tEEERKNT_4typeES4_@Base 1.4
 _ZNK4CVC47OptionsixINS_7options28produceAssignments__option_tEEERKNT_4typeES4_@Base 1.4
 _ZNK4CVC47OptionsixINS_7options28relationalTriggers__option_tEEERKNT_4typeES4_@Base 1.4
 _ZNK4CVC47OptionsixINS_7options28replayFailureLemma__option_tEEERKNT_4typeES4_@Base 1.4
 _ZNK4CVC47OptionsixINS_7options28simpleIteLiftQuant__option_tEEERKNT_4typeES4_@Base 1.4
 _ZNK4CVC47OptionsixINS_7options28simplificationMode__option_tEEERKNT_4typeES4_@Base 1.4
 _ZNK4CVC47OptionsixINS_7options28skolemizeArguments__option_tEEERKNT_4typeES4_@Base 1.4
 _ZNK4CVC47OptionsixINS_7options29arithPivotThreshold__option_tEEERKNT_4typeES4_@Base 1.4
 _ZNK4CVC47OptionsixINS_7options29arithUnateLemmaMode__option_tEEERKNT_4typeES4_@Base 1.4
 _ZNK4CVC47OptionsixINS_7options29bvEagerExplanations__option_tEEERKNT_4typeES4_@Base 1.4
 _ZNK4CVC47OptionsixINS_7options29fmfOneQuantPerRound__option_tEEERKNT_4typeES4_@Base 1.4
 _ZNK4CVC47OptionsixINS_7options29incrementalParallel__option_tEEERKNT_4typeES4_@Base 1.4
 _ZNK4CVC47OptionsixINS_7options29modelUninterpDtEnum__option_tEEERKNT_4typeES4_@Base 1.4
 _ZNK4CVC47OptionsixINS_7options29replayRejectCutSize__option_tEEERKNT_4typeES4_@Base 1.4
 _ZNK4CVC47OptionsixINS_7options29rewriteApplyToConst__option_tEEERKNT_4typeES4_@Base 1.4
 _ZNK4CVC47OptionsixINS_7options29tearDownIncremental__option_tEEERKNT_4typeES4_@Base 1.4
 _ZNK4CVC47OptionsixINS_7options29ufssTotalityLimited__option_tEEERKNT_4typeES4_@Base 1.4
 _ZNK4CVC47OptionsixINS_7options29zombieHuntThreshold__option_tEEERKNT_4typeES4_@Base 1.4
 _ZNK4CVC47OptionsixINS_7options30arithHeuristicPivots__option_tEEERKNT_4typeES4_@Base 1.4
 _ZNK4CVC47OptionsixINS_7options30arithPropagationMode__option_tEEERKNT_4typeES4_@Base 1.4
 _ZNK4CVC47OptionsixINS_7options30arraysOptimizeLinear__option_tEEERKNT_4typeES4_@Base 1.4
 _ZNK4CVC47OptionsixINS_7options30bitvectorQuickXplain__option_tEEERKNT_4typeES4_@Base 1.4
 _ZNK4CVC47OptionsixINS_7options30decisionRandomWeight__option_tEEERKNT_4typeES4_@Base 1.4
 _ZNK4CVC47OptionsixINS_7options30perCallResourceLimit__option_tEEERKNT_4typeES4_@Base 1.4
 _ZNK4CVC47OptionsixINS_7options30replayFailurePenalty__option_tEEERKNT_4typeES4_@Base 1.4
 _ZNK4CVC47OptionsixINS_7options30sat_refine_conflicts__option_tEEERKNT_4typeES4_@Base 1.4
 _ZNK4CVC47OptionsixINS_7options30ufssAbortCardinality__option_tEEERKNT_4typeES4_@Base 1.4
 _ZNK4CVC47OptionsixINS_7options30ufssDiseqPropagation__option_tEEERKNT_4typeES4_@Base 1.4
 _ZNK4CVC47OptionsixINS_7options30ufssExplainedCliques__option_tEEERKNT_4typeES4_@Base 1.4
 _ZNK4CVC47OptionsixINS_7options30ufssTotalitySymBreak__option_tEEERKNT_4typeES4_@Base 1.4
 _ZNK4CVC47OptionsixINS_7options31miniscopeQuantFreeVar__option_tEEERKNT_4typeES4_@Base 1.4
 _ZNK4CVC47OptionsixINS_7options31sharingFilterByLength__option_tEEERKNT_4typeES4_@Base 1.4
 _ZNK4CVC47OptionsixINS_7options31soiApproxMajorFailure__option_tEEERKNT_4typeES4_@Base 1.4
 _ZNK4CVC47OptionsixINS_7options31soiApproxMinorFailure__option_tEEERKNT_4typeES4_@Base 1.4
 _ZNK4CVC47OptionsixINS_7options31stringCharCardinality__option_tEEERKNT_4typeES4_@Base 1.4
 _ZNK4CVC47OptionsixINS_7options32arithPropAsLemmaLength__option_tEEERKNT_4typeES4_@Base 1.4
 _ZNK4CVC47OptionsixINS_7options32condenseFunctionValues__option_tEEERKNT_4typeES4_@Base 1.4
 _ZNK4CVC47OptionsixINS_7options32decisionWeightInternal__option_tEEERKNT_4typeES4_@Base 1.4
 _ZNK4CVC47OptionsixINS_7options32registerQuantBodyTerms__option_tEEERKNT_4typeES4_@Base 1.4
 _ZNK4CVC47OptionsixINS_7options32replayEarlyCloseDepths__option_tEEERKNT_4typeES4_@Base 1.4
 _ZNK4CVC47OptionsixINS_7options33arithErrorSelectionRule__option_tEEERKNT_4typeES4_@Base 1.4
 _ZNK4CVC47OptionsixINS_7options33arithPropagateMaxLength__option_tEEERKNT_4typeES4_@Base 1.4
 _ZNK4CVC47OptionsixINS_7options33arithSimplexCheckPeriod__option_tEEERKNT_4typeES4_@Base 1.4
 _ZNK4CVC47OptionsixINS_7options33bitvectorDivByZeroConst__option_tEEERKNT_4typeES4_@Base 1.4
 _ZNK4CVC47OptionsixINS_7options33bitvectorEqualitySlicer__option_tEEERKNT_4typeES4_@Base 1.4
 _ZNK4CVC47OptionsixINS_7options33bitvectorEqualitySolver__option_tEEERKNT_4typeES4_@Base 1.4
 _ZNK4CVC47OptionsixINS_7options33cumulativeResourceLimit__option_tEEERKNT_4typeES4_@Base 1.4
 _ZNK4CVC47OptionsixINS_7options33exportDioDecompositions__option_tEEERKNT_4typeES4_@Base 1.4
 _ZNK4CVC47OptionsixINS_7options33perCallMillisecondLimit__option_tEEERKNT_4typeES4_@Base 1.4
 _ZNK4CVC47OptionsixINS_7options33simplifyWithCareEnabled__option_tEEERKNT_4typeES4_@Base 1.4
 _ZNK4CVC47OptionsixINS_7options34aggressiveMiniscopeQuant__option_tEEERKNT_4typeES4_@Base 1.4
 _ZNK4CVC47OptionsixINS_7options34bitvectorAlgebraicBudget__option_tEEERKNT_4typeES4_@Base 1.4
 _ZNK4CVC47OptionsixINS_7options34bitvectorAlgebraicSolver__option_tEEERKNT_4typeES4_@Base 1.4
 _ZNK4CVC47OptionsixINS_7options34forceNoLimitCpuWhileDump__option_tEEERKNT_4typeES4_@Base 1.4
 _ZNK4CVC47OptionsixINS_7options34soiApproxMajorFailurePen__option_tEEERKNT_4typeES4_@Base 1.4
 _ZNK4CVC47OptionsixINS_7options34soiApproxMinorFailurePen__option_tEEERKNT_4typeES4_@Base 1.4
 _ZNK4CVC47OptionsixINS_7options35arithMLTrickSubstitutions__option_tEEERKNT_4typeES4_@Base 1.4
 _ZNK4CVC47OptionsixINS_7options35arraysEagerIndexSplitting__option_tEEERKNT_4typeES4_@Base 1.4
 _ZNK4CVC47OptionsixINS_7options35bitvectorInequalitySolver__option_tEEERKNT_4typeES4_@Base 1.4
 _ZNK4CVC47OptionsixINS_7options35booleanTermConversionMode__option_tEEERKNT_4typeES4_@Base 1.4
 _ZNK4CVC47OptionsixINS_7options35trySolveIntStandardEffort__option_tEEERKNT_4typeES4_@Base 1.4
 _ZNK4CVC47OptionsixINS_7options36cumulativeMillisecondLimit__option_tEEERKNT_4typeES4_@Base 1.4
 _ZNK4CVC47OptionsixINS_7options36fmfInstGenOneQuantPerRound__option_tEEERKNT_4typeES4_@Base 1.4
 _ZNK4CVC47OptionsixINS_7options37bitvectorAigSimplifications__option_tEEERKNT_4typeES4_@Base 1.4
 _ZNK4CVC47OptionsixINS_7options37replayNumericFailurePenalty__option_tEEERKNT_4typeES4_@Base 1.4
 _ZNK4CVC47OptionsixINS_7options42arithStandardCheckVarOrderPivots__option_tEEERKNT_4typeES4_@Base 1.4
 _ZNK4CVC47SetType14getElementTypeEv@Base 1.4
 _ZNK4CVC48Datatype12mkGroundTermENS_4TypeE@Base 1.4
 _ZNK4CVC48Datatype13getParametersEv@Base 1.4
 _ZNK4CVC48Datatype13isWellFoundedEv@Base 1.4
 _ZNK4CVC48Datatype14getCardinalityEv@Base 1.4
 _ZNK4CVC48Datatype14getConstructorESs@Base 1.4
 _ZNK4CVC48Datatype15getDatatypeTypeERKSt6vectorINS_4TypeESaIS2_EE@Base 1.4
 _ZNK4CVC48Datatype15getDatatypeTypeEv@Base 1.4
 _ZNK4CVC48Datatype20involvesExternalTypeEv@Base 1.4
 _ZNK4CVC48Datatype7getNameEv@Base 1.4
 _ZNK4CVC48Datatype8isFiniteEv@Base 1.4
 _ZNK4CVC48DatatypeeqERKS0_@Base 1.4
 _ZNK4CVC48DatatypeixESs@Base 1.4
 _ZNK4CVC48DatatypeixEm@Base 1.4
 _ZNK4CVC48Rational10isIntegralEv@Base 1.4
 _ZNK4CVC48Rational6absCmpERKS0_@Base 1.4
 _ZNK4CVC48Rational7ceilingEv@Base 1.4
 _ZNK4CVC48RationalngEv@Base 1.4
 _ZNK4CVC48SortType13getParamTypesEv@Base 1.4
 _ZNK4CVC48SortType15isParameterizedEv@Base 1.4
 _ZNK4CVC48SortType7getNameEv@Base 1.4
 _ZNK4CVC49ArrayType12getIndexTypeEv@Base 1.4
 _ZNK4CVC49ArrayType18getConstituentTypeEv@Base 1.4
 _ZNK4CVC49BitVector10signExtendEj@Base 1.4
 _ZNK4CVC49BitVector11toSignedIntEv@Base 1.4
 _ZNK4CVC49BitVector15arithRightShiftERKS0_@Base 1.4
 _ZNK4CVC49BitVectoreoERKS0_@Base 1.4
 _ZNK4CVC49BitVectormiERKS0_@Base 1.4
 _ZNK4CVC49BitVectorngEv@Base 1.4
 _ZNK4CVC49BitVectorplERKS0_@Base 1.4
 _ZNK4CVC49Exception10getMessageEv@Base 1.4
 _ZNK4CVC49Exception4whatEv@Base 1.4
 _ZNK4CVC49Exception8toStreamERSo@Base 1.4
 _ZNK4CVC49LogicInfo12areRealsUsedEv@Base 1.4
 _ZNK4CVC49LogicInfo12isQuantifiedEv@Base 1.4
 _ZNK4CVC49LogicInfo13hasEverythingEv@Base 1.4
 _ZNK4CVC49LogicInfo14getLogicStringEv@Base 1.4
 _ZNK4CVC49LogicInfo15areIntegersUsedEv@Base 1.4
 _ZNK4CVC49LogicInfo15getUnlockedCopyEv@Base 1.4
 _ZNK4CVC49LogicInfo15isTheoryEnabledENS_6theory8TheoryIdE@Base 1.4
 _ZNK4CVC49LogicInfo17isDifferenceLogicEv@Base 1.4
 _ZNK4CVC49LogicInfo6isPureENS_6theory8TheoryIdE@Base 1.4
 _ZNK4CVC49LogicInfo8isLinearEv@Base 1.4
 _ZNK4CVC49PredicatecvNS_4ExprEEv@Base 1.4
 _ZNK4CVC49PredicateeqERKS0_@Base 1.4
 _ZNK4CVC49SExprType8getTypesEv@Base 1.4
 _ZNK4CVC49SmtEngine11postprocessENS_12NodeTemplateILb0EEENS_8TypeNodeE@Base 1.4
 _ZNK4CVC49SmtEngine12getLogicInfoEv@Base 1.4
 _ZNK4CVC49SmtEngine12getStatisticESs@Base 1.4
 _ZNK4CVC49SmtEngine12getTimeUsageEv@Base 1.4
 _ZNK4CVC49SmtEngine13getStatisticsEv@Base 1.4
 _ZNK4CVC49SmtEngine16getResourceUsageEv@Base 1.4
 _ZNK4CVC49SmtEngine16getTimeRemainingEv@Base 1.4
 _ZNK4CVC49SmtEngine20getResourceRemainingEv@Base 1.4
 _ZNK4CVC49SmtEngine7getInfoERKSs@Base 1.4
 _ZNK4CVC49SmtEngine8getValueERKNS_4ExprE@Base 1.4
 _ZNK4CVC49SmtEngine9getOptionERKSs@Base 1.4
 _ZNK4CVC49TupleType8getTypesEv@Base 1.4
 _ZNK4CVC49TupleType9getLengthEv@Base 1.4
 _ZNKSt15_Deque_iteratorImRmPmEmiEl@Base 1.4
 _ZNKSt15_Deque_iteratorImRmPmEplEl@Base 1.4
 _ZNKSt5ctypeIcE8do_widenEc@Base 1.4
 _ZNKSt8_Rb_treeISsSt4pairIKSsN4CVC412DatatypeTypeEESt10_Select1stIS4_ESt4lessISsESaIS4_EE4findERS1_@Base 1.4
 _ZNKSt8_Rb_treeISsSt4pairIKSsN4CVC47IntegerEESt10_Select1stIS4_ESt4lessISsESaIS4_EE4findERS1_@Base 1.4
 _ZNSs12_S_constructIPcEES0_T_S1_RKSaIcESt20forward_iterator_tag@Base 1.4
 _ZNSt11_Deque_baseIN4CVC44ExprESaIS1_EED1Ev@Base 1.4
 _ZNSt11_Deque_baseIN4CVC44ExprESaIS1_EED2Ev@Base 1.4
 _ZNSt11_Deque_baseIjSaIjEE17_M_initialize_mapEm@Base 1.4
 _ZNSt11_Deque_baseIjSaIjEED1Ev@Base 1.4
 _ZNSt11_Deque_baseIjSaIjEED2Ev@Base 1.4
 _ZNSt11_Deque_baseImSaImEED1Ev@Base 1.4
 _ZNSt11_Deque_baseImSaImEED2Ev@Base 1.4
 _ZNSt12_Destroy_auxILb0EE9__destroyIPSsEEvT_S3_@Base 1.4
 _ZNSt14_Bit_referenceaSEb@Base 1.4
 _ZNSt15basic_stringbufIcSt11char_traitsIcESaIcEED0Ev@Base 1.4
 _ZNSt15basic_stringbufIcSt11char_traitsIcESaIcEED1Ev@Base 1.4
 _ZNSt15basic_stringbufIcSt11char_traitsIcESaIcEED2Ev@Base 1.4
 _ZNSt20__uninitialized_copyILb0EE13__uninit_copyIN9__gnu_cxx17__normal_iteratorIPKN4CVC419DatatypeConstructorESt6vectorIS5_SaIS5_EEEEPS5_EET0_T_SE_SD_@Base 1.4
 _ZNSt20__uninitialized_copyILb0EE13__uninit_copyIN9__gnu_cxx17__normal_iteratorIPKN4CVC422DatatypeConstructorArgESt6vectorIS5_SaIS5_EEEEPS5_EET0_T_SE_SD_@Base 1.4
 _ZNSt20__uninitialized_copyILb0EE13__uninit_copyIN9__gnu_cxx17__normal_iteratorIPKN4CVC45SExprESt6vectorIS5_SaIS5_EEEEPS5_EET0_T_SE_SD_@Base 1.4
 _ZNSt20__uninitialized_copyILb0EE13__uninit_copyIN9__gnu_cxx17__normal_iteratorIPKN4CVC46theory11quantifiers14InstGenProcessESt6vectorIS7_SaIS7_EEEEPS7_EET0_T_SG_SF_@Base 1.4
 _ZNSt20__uninitialized_copyILb0EE13__uninit_copyIN9__gnu_cxx17__normal_iteratorIPKN4CVC46theory11quantifiers8MatchGenESt6vectorIS7_SaIS7_EEEEPS7_EET0_T_SG_SF_@Base 1.4
 _ZNSt20__uninitialized_copyILb0EE13__uninit_copyIN9__gnu_cxx17__normal_iteratorIPKSt6vectorIN4CVC412NodeTemplateILb0EEESaIS7_EES4_IS9_SaIS9_EEEEPS9_EET0_T_SH_SG_@Base 1.4
 _ZNSt20__uninitialized_copyILb0EE13__uninit_copyIPN4CVC412DatatypeTypeES4_EET0_T_S6_S5_@Base 1.4
 _ZNSt20__uninitialized_copyILb0EE13__uninit_copyIPN4CVC413DeltaRationalES4_EET0_T_S6_S5_@Base 1.4
 _ZNSt20__uninitialized_copyILb0EE13__uninit_copyIPN4CVC414NodeTheoryPairES4_EET0_T_S6_S5_@Base 1.4
 _ZNSt20__uninitialized_copyILb0EE13__uninit_copyIPN4CVC419DatatypeConstructorES4_EET0_T_S6_S5_@Base 1.4
 _ZNSt20__uninitialized_copyILb0EE13__uninit_copyIPN4CVC422DatatypeConstructorArgES4_EET0_T_S6_S5_@Base 1.4
 _ZNSt20__uninitialized_copyILb0EE13__uninit_copyIPN4CVC44ExprES4_EET0_T_S6_S5_@Base 1.4
 _ZNSt20__uninitialized_copyILb0EE13__uninit_copyIPN4CVC44TypeES4_EET0_T_S6_S5_@Base 1.4
 _ZNSt20__uninitialized_copyILb0EE13__uninit_copyIPN4CVC45SExprES4_EET0_T_S6_S5_@Base 1.4
 _ZNSt20__uninitialized_copyILb0EE13__uninit_copyIPN4CVC46theory11quantifiers14InstGenProcessES6_EET0_T_S8_S7_@Base 1.4
 _ZNSt20__uninitialized_copyILb0EE13__uninit_copyIPN4CVC46theory11quantifiers7fmcheck3DefES7_EET0_T_S9_S8_@Base 1.4
 _ZNSt20__uninitialized_copyILb0EE13__uninit_copyIPN4CVC46theory11quantifiers8MatchGenES6_EET0_T_S8_S7_@Base 1.4
 _ZNSt20__uninitialized_copyILb0EE13__uninit_copyIPN4CVC46theory14TypeEnumeratorES5_EET0_T_S7_S6_@Base 1.4
 _ZNSt20__uninitialized_copyILb0EE13__uninit_copyIPN4CVC46theory19RewriteStackElementES5_EET0_T_S7_S6_@Base 1.4
 _ZNSt20__uninitialized_copyILb0EE13__uninit_copyIPN4CVC46theory2bv15WorklistElementES6_EET0_T_S8_S7_@Base 1.4
 _ZNSt20__uninitialized_copyILb0EE13__uninit_copyIPN4CVC46theory2eq11TriggerInfoES6_EET0_T_S8_S7_@Base 1.4
 _ZNSt20__uninitialized_copyILb0EE13__uninit_copyIPN4CVC46theory4inst20InstMatchTrieOrderedES6_EET0_T_S8_S7_@Base 1.4
 _ZNSt20__uninitialized_copyILb0EE13__uninit_copyIPN4CVC46theory4inst9InstMatchES6_EET0_T_S8_S7_@Base 1.4
 _ZNSt20__uninitialized_copyILb0EE13__uninit_copyIPN4CVC46theory5arith11MatrixEntryINS2_8RationalEEES8_EET0_T_SA_S9_@Base 1.4
 _ZNSt20__uninitialized_copyILb0EE13__uninit_copyIPN4CVC46theory5arith14ArithVariables7VarInfoES7_EET0_T_S9_S8_@Base 1.4
 _ZNSt20__uninitialized_copyILb0EE13__uninit_copyIPN4CVC46theory5arith16ErrorInformationES6_EET0_T_S8_S7_@Base 1.4
 _ZNSt20__uninitialized_copyILb0EE13__uninit_copyIPN4CVC46theory5arith6BorderES6_EET0_T_S8_S7_@Base 1.4
 _ZNSt20__uninitialized_copyILb0EE13__uninit_copyIPN4CVC48DatatypeES4_EET0_T_S6_S5_@Base 1.4
 _ZNSt20__uninitialized_copyILb0EE13__uninit_copyIPN4CVC48RationalES4_EET0_T_S6_S5_@Base 1.4
 _ZNSt20__uninitialized_copyILb0EE13__uninit_copyIPN4CVC49BitVectorES4_EET0_T_S6_S5_@Base 1.4
 _ZNSt20__uninitialized_copyILb0EE13__uninit_copyIPSt4pairISsN4CVC44TypeEES6_EET0_T_S8_S7_@Base 1.4
 _ZNSt20__uninitialized_copyILb0EE13__uninit_copyIPSt6vectorIN4CVC412NodeTemplateILb0EEESaIS5_EES8_EET0_T_SA_S9_@Base 1.4
 _ZNSt20__uninitialized_copyILb0EE13__uninit_copyIPSt6vectorIN4CVC412NodeTemplateILb1EEESaIS5_EES8_EET0_T_SA_S9_@Base 1.4
 _ZNSt20__uninitialized_copyILb0EE13__uninit_copyIPSt6vectorIN4CVC44ExprESaIS4_EES7_EET0_T_S9_S8_@Base 1.4
 _ZNSt20__uninitialized_copyILb0EE13__uninit_copyIPSt6vectorIN4CVC46theory2bv15InequalityGraph14InequalityEdgeESaIS7_EESA_EET0_T_SC_SB_@Base 1.4
 _ZNSt20__uninitialized_copyILb0EE13__uninit_copyIPSt6vectorIPKN4CVC46theory5arith11Constraint_ESaIS8_EESB_EET0_T_SD_SC_@Base 1.4
 _ZNSt20__uninitialized_copyILb0EE13__uninit_copyIPSt6vectorIiSaIiEES5_EET0_T_S7_S6_@Base 1.4
 _ZNSt20__uninitialized_copyILb0EE13__uninit_copyIPSt6vectorIjSaIjEES5_EET0_T_S7_S6_@Base 1.4
 _ZNSt22__uninitialized_fill_nILb0EE15__uninit_fill_nIPN4CVC413DeltaRationalEmS3_EEvT_T0_RKT1_@Base 1.4
 _ZNSt22__uninitialized_fill_nILb0EE15__uninit_fill_nIPN4CVC46theory5arith14ArithVariables7VarInfoEmS6_EEvT_T0_RKT1_@Base 1.4
 _ZNSt22__uninitialized_fill_nILb0EE15__uninit_fill_nIPN4CVC48RationalEmS3_EEvT_T0_RKT1_@Base 1.4
 _ZNSt22__uninitialized_fill_nILb0EE15__uninit_fill_nIPSt6vectorIN4CVC412NodeTemplateILb1EEESaIS5_EEmS7_EEvT_T0_RKT1_@Base 1.4
 _ZNSt22__uninitialized_fill_nILb0EE15__uninit_fill_nIPSt6vectorIPKN4CVC46theory5arith11Constraint_ESaIS8_EEmSA_EEvT_T0_RKT1_@Base 1.4
 _ZNSt3mapISsN9__gnu_cxx8hash_setIPKN4CVC419DatatypeConstructorENS2_20DatatypeHashFunctionESt8equal_toIS5_ESaIS5_EEESt4lessISsESaISt4pairIKSsSA_EEEixERSE_@Base 1.4
 _ZNSt3mapISsN9__gnu_cxx8hash_setIPKN4CVC48DatatypeENS2_20DatatypeHashFunctionESt8equal_toIS5_ESaIS5_EEESt4lessISsESaISt4pairIKSsSA_EEEixERSE_@Base 1.4
 _ZNSt3mapIiSt6vectorIiSaIiEESt4lessIiESaISt4pairIKiS2_EEEixERS6_@Base 1.4
 _ZNSt3mapIibSt4lessIiESaISt4pairIKibEEEixERS3_@Base 1.4
 _ZNSt3mapIiiSt4lessIiESaISt4pairIKiiEEEixERS3_@Base 1.4
 _ZNSt3mapIjbSt4lessIjESaISt4pairIKjbEEEixERS3_@Base 1.4
 _ZNSt3mapIjiSt4lessIjESaISt4pairIKjiEEEixERS3_@Base 1.4
 _ZNSt3mapIjjSt4lessIjESaISt4pairIKjjEEEixERS3_@Base 1.4
 _ZNSt4pairIKN4CVC44ExprES1_ED1Ev@Base 1.4
 _ZNSt4pairIKN4CVC44ExprES1_ED2Ev@Base 1.4
 _ZNSt4pairIKN4CVC44TypeES1_ED1Ev@Base 1.4
 _ZNSt4pairIKN4CVC44TypeES1_ED2Ev@Base 1.4
 _ZNSt4pairIKSsKN4CVC44ExprEED1Ev@Base 1.4
 _ZNSt4pairIKSsKN4CVC44ExprEED2Ev@Base 1.4
 _ZNSt4pairIKSsKS_ISt6vectorIN4CVC44TypeESaIS3_EES3_EED1Ev@Base 1.4
 _ZNSt4pairIKSsKS_ISt6vectorIN4CVC44TypeESaIS3_EES3_EED2Ev@Base 1.4
 _ZNSt4pairISsN4CVC44TypeEED1Ev@Base 1.4
 _ZNSt4pairISsN4CVC44TypeEED2Ev@Base 1.4
 _ZNSt4pairISsN4CVC45SExprEED1Ev@Base 1.4
 _ZNSt4pairISsN4CVC45SExprEED2Ev@Base 1.4
 _ZNSt4pairISt6vectorIN4CVC44TypeESaIS2_EES2_ED1Ev@Base 1.4
 _ZNSt4pairISt6vectorIN4CVC44TypeESaIS2_EES2_ED2Ev@Base 1.4
 _ZNSt5dequeIN4CVC44ExprESaIS1_EE16_M_push_back_auxERKS1_@Base 1.4
 _ZNSt5dequeIN4CVC44ExprESaIS1_EE17_M_push_front_auxERKS1_@Base 1.4
 _ZNSt5dequeIN4CVC44ExprESaIS1_EED1Ev@Base 1.4
 _ZNSt5dequeIN4CVC44ExprESaIS1_EED2Ev@Base 1.4
 _ZNSt5dequeIPcSaIS0_EE16_M_push_back_auxERKS0_@Base 1.4
 _ZNSt5dequeIjSaIjEE16_M_push_back_auxERKj@Base 1.4
 _ZNSt5dequeIjSaIjEEC1ERKS1_@Base 1.4
 _ZNSt5dequeIjSaIjEEC2ERKS1_@Base 1.4
 _ZNSt5dequeImSaImEE13_M_insert_auxESt15_Deque_iteratorImRmPmEmRKm@Base 1.4
 _ZNSt5dequeImSaImEE14_M_fill_insertESt15_Deque_iteratorImRmPmEmRKm@Base 1.4
 _ZNSt5dequeImSaImEE17_M_reallocate_mapEmb@Base 1.4
 _ZNSt5dequeImSaImEE23_M_new_elements_at_backEm@Base 1.4
 _ZNSt5dequeImSaImEE24_M_new_elements_at_frontEm@Base 1.4
 _ZNSt5dequeImSaImEE9push_backERKm@Base 1.4
 _ZNSt6vectorIN4CVC412DatatypeTypeESaIS1_EE13_M_insert_auxEN9__gnu_cxx17__normal_iteratorIPS1_S3_EERKS1_@Base 1.4
 _ZNSt6vectorIN4CVC412DatatypeTypeESaIS1_EED1Ev@Base 1.4
 _ZNSt6vectorIN4CVC412DatatypeTypeESaIS1_EED2Ev@Base 1.4
 _ZNSt6vectorIN4CVC419DatatypeConstructorESaIS1_EE13_M_insert_auxEN9__gnu_cxx17__normal_iteratorIPS1_S3_EERKS1_@Base 1.4
 _ZNSt6vectorIN4CVC419DatatypeConstructorESaIS1_EED1Ev@Base 1.4
 _ZNSt6vectorIN4CVC419DatatypeConstructorESaIS1_EED2Ev@Base 1.4
 _ZNSt6vectorIN4CVC419DatatypeConstructorESaIS1_EEaSERKS3_@Base 1.4
 _ZNSt6vectorIN4CVC419SortConstructorTypeESaIS1_EE13_M_insert_auxEN9__gnu_cxx17__normal_iteratorIPS1_S3_EERKS1_@Base 1.4
 _ZNSt6vectorIN4CVC419SortConstructorTypeESaIS1_EED1Ev@Base 1.4
 _ZNSt6vectorIN4CVC419SortConstructorTypeESaIS1_EED2Ev@Base 1.4
 _ZNSt6vectorIN4CVC422DatatypeConstructorArgESaIS1_EE13_M_insert_auxEN9__gnu_cxx17__normal_iteratorIPS1_S3_EERKS1_@Base 1.4
 _ZNSt6vectorIN4CVC422DatatypeConstructorArgESaIS1_EED1Ev@Base 1.4
 _ZNSt6vectorIN4CVC422DatatypeConstructorArgESaIS1_EED2Ev@Base 1.4
 _ZNSt6vectorIN4CVC422DatatypeConstructorArgESaIS1_EEaSERKS3_@Base 1.4
 _ZNSt6vectorIN4CVC44ExprESaIS1_EE13_M_insert_auxEN9__gnu_cxx17__normal_iteratorIPS1_S3_EERKS1_@Base 1.4
 _ZNSt6vectorIN4CVC44ExprESaIS1_EE7reserveEm@Base 1.4
 _ZNSt6vectorIN4CVC44ExprESaIS1_EEC1ERKS3_@Base 1.4
 _ZNSt6vectorIN4CVC44ExprESaIS1_EEC2ERKS3_@Base 1.4
 _ZNSt6vectorIN4CVC44ExprESaIS1_EED1Ev@Base 1.4
 _ZNSt6vectorIN4CVC44ExprESaIS1_EED2Ev@Base 1.4
 _ZNSt6vectorIN4CVC44ExprESaIS1_EEaSERKS3_@Base 1.4
 _ZNSt6vectorIN4CVC44TypeESaIS1_EE13_M_insert_auxEN9__gnu_cxx17__normal_iteratorIPS1_S3_EERKS1_@Base 1.4
 _ZNSt6vectorIN4CVC44TypeESaIS1_EEC1ERKS3_@Base 1.4
 _ZNSt6vectorIN4CVC44TypeESaIS1_EEC2ERKS3_@Base 1.4
 _ZNSt6vectorIN4CVC44TypeESaIS1_EED1Ev@Base 1.4
 _ZNSt6vectorIN4CVC44TypeESaIS1_EED2Ev@Base 1.4
 _ZNSt6vectorIN4CVC44TypeESaIS1_EEaSERKS3_@Base 1.4
 _ZNSt6vectorIN4CVC45SExprESaIS1_EE13_M_insert_auxEN9__gnu_cxx17__normal_iteratorIPS1_S3_EERKS1_@Base 1.4
 _ZNSt6vectorIN4CVC45SExprESaIS1_EE9push_backERKS1_@Base 1.4
 _ZNSt6vectorIN4CVC45SExprESaIS1_EED1Ev@Base 1.4
 _ZNSt6vectorIN4CVC45SExprESaIS1_EED2Ev@Base 1.4
 _ZNSt6vectorIN4CVC45SExprESaIS1_EEaSERKS3_@Base 1.4
 _ZNSt6vectorIN4CVC47IntegerESaIS1_EE13_M_insert_auxEN9__gnu_cxx17__normal_iteratorIPS1_S3_EERKS1_@Base 1.4
 _ZNSt6vectorIN4CVC48DatatypeESaIS1_EE13_M_insert_auxEN9__gnu_cxx17__normal_iteratorIPS1_S3_EERKS1_@Base 1.4
 _ZNSt6vectorIN4CVC48DatatypeESaIS1_EE9push_backERKS1_@Base 1.4
 _ZNSt6vectorIN4CVC48DatatypeESaIS1_EED1Ev@Base 1.4
 _ZNSt6vectorIN4CVC48DatatypeESaIS1_EED2Ev@Base 1.4
 _ZNSt6vectorIN4CVC48RationalESaIS1_EE13_M_insert_auxEN9__gnu_cxx17__normal_iteratorIPS1_S3_EERKS1_@Base 1.4
 _ZNSt6vectorIN4CVC48RationalESaIS1_EE14_M_fill_insertEN9__gnu_cxx17__normal_iteratorIPS1_S3_EEmRKS1_@Base 1.4
 _ZNSt6vectorIN4CVC48RationalESaIS1_EE6resizeEmS1_@Base 1.4
 _ZNSt6vectorIN4CVC48RationalESaIS1_EEC1ERKS3_@Base 1.4
 _ZNSt6vectorIN4CVC48RationalESaIS1_EEC2ERKS3_@Base 1.4
 _ZNSt6vectorIN4CVC48RationalESaIS1_EED1Ev@Base 1.4
 _ZNSt6vectorIN4CVC48RationalESaIS1_EED2Ev@Base 1.4
 _ZNSt6vectorIN4CVC49BitVectorESaIS1_EE13_M_insert_auxEN9__gnu_cxx17__normal_iteratorIPS1_S3_EERKS1_@Base 1.4
 _ZNSt6vectorIN4CVC49BitVectorESaIS1_EE9push_backERKS1_@Base 1.4
 _ZNSt6vectorIN4CVC49BitVectorESaIS1_EED1Ev@Base 1.4
 _ZNSt6vectorIN4CVC49BitVectorESaIS1_EED2Ev@Base 1.4
 _ZNSt6vectorIPFvPvESaIS2_EED1Ev@Base 1.4
 _ZNSt6vectorIPFvPvESaIS2_EED2Ev@Base 1.4
 _ZNSt6vectorIPFvSsESaIS1_EE13_M_insert_auxEN9__gnu_cxx17__normal_iteratorIPS1_S3_EERKS1_@Base 1.4
 _ZNSt6vectorIPFvSsESaIS1_EED1Ev@Base 1.4
 _ZNSt6vectorIPFvSsESaIS1_EED2Ev@Base 1.4
 _ZNSt6vectorIPFvmESaIS1_EE13_M_insert_auxEN9__gnu_cxx17__normal_iteratorIPS1_S3_EERKS1_@Base 1.4
 _ZNSt6vectorIPFvmESaIS1_EE9push_backERKS1_@Base 1.4
 _ZNSt6vectorIPFvmESaIS1_EED1Ev@Base 1.4
 _ZNSt6vectorIPFvmESaIS1_EED2Ev@Base 1.4
 _ZNSt6vectorIPKN4CVC48RationalESaIS3_EE14_M_fill_insertEN9__gnu_cxx17__normal_iteratorIPS3_S5_EEmRKS3_@Base 1.4
 _ZNSt6vectorIPN4CVC47CommandESaIS2_EE13_M_insert_auxEN9__gnu_cxx17__normal_iteratorIPS2_S4_EERKS2_@Base 1.4
 _ZNSt6vectorIPN9__gnu_cxx15_Hashtable_nodeIN4CVC44ExprEEESaIS5_EE14_M_fill_insertENS0_17__normal_iteratorIPS5_S7_EEmRKS5_@Base 1.4
 _ZNSt6vectorIPN9__gnu_cxx15_Hashtable_nodeIN4CVC44TypeEEESaIS5_EE14_M_fill_insertENS0_17__normal_iteratorIPS5_S7_EEmRKS5_@Base 1.4
 _ZNSt6vectorIPN9__gnu_cxx15_Hashtable_nodeIPKN4CVC419DatatypeConstructorEEESaIS7_EE14_M_fill_insertENS0_17__normal_iteratorIPS7_S9_EEmRKS7_@Base 1.4
 _ZNSt6vectorIPN9__gnu_cxx15_Hashtable_nodeIPKN4CVC419DatatypeConstructorEEESaIS7_EE7reserveEm@Base 1.4
 _ZNSt6vectorIPN9__gnu_cxx15_Hashtable_nodeIPKN4CVC48DatatypeEEESaIS7_EE14_M_fill_insertENS0_17__normal_iteratorIPS7_S9_EEmRKS7_@Base 1.4
 _ZNSt6vectorIPN9__gnu_cxx15_Hashtable_nodeIPKN4CVC48DatatypeEEESaIS7_EE7reserveEm@Base 1.4
 _ZNSt6vectorIPN9__gnu_cxx15_Hashtable_nodeISt4pairIKN4CVC44ExprEbEEESaIS8_EE14_M_fill_insertENS0_17__normal_iteratorIPS8_SA_EEmRKS8_@Base 1.4
 _ZNSt6vectorIPN9__gnu_cxx15_Hashtable_nodeISt4pairIKPKN4CVC48DatatypeES6_EEESaISA_EE14_M_fill_insertENS0_17__normal_iteratorIPSA_SC_EEmRKSA_@Base 1.4
 _ZNSt6vectorIPN9__gnu_cxx15_Hashtable_nodeISt4pairIKS2_IjiES_IjSaIjEEEEESaIS9_EE14_M_fill_insertENS0_17__normal_iteratorIPS9_SB_EEmRKS9_@Base 1.4
 _ZNSt6vectorIPN9__gnu_cxx15_Hashtable_nodeISt4pairIKiiEEESaIS6_EE14_M_fill_insertENS0_17__normal_iteratorIPS6_S8_EEmRKS6_@Base 1.4
 _ZNSt6vectorIPN9__gnu_cxx15_Hashtable_nodeISt4pairIKijEEESaIS6_EE14_M_fill_insertENS0_17__normal_iteratorIPS6_S8_EEmRKS6_@Base 1.4
 _ZNSt6vectorIPN9__gnu_cxx15_Hashtable_nodeISt4pairIKjbEEESaIS6_EE14_M_fill_insertENS0_17__normal_iteratorIPS6_S8_EEmRKS6_@Base 1.4
 _ZNSt6vectorIPN9__gnu_cxx15_Hashtable_nodeISt4pairIKjiEEESaIS6_EE14_M_fill_insertENS0_17__normal_iteratorIPS6_S8_EEmRKS6_@Base 1.4
 _ZNSt6vectorIPN9__gnu_cxx15_Hashtable_nodeISt4pairIKjjEEESaIS6_EE14_M_fill_insertENS0_17__normal_iteratorIPS6_S8_EEmRKS6_@Base 1.4
 _ZNSt6vectorIPN9__gnu_cxx15_Hashtable_nodeIiEESaIS3_EE14_M_fill_insertENS0_17__normal_iteratorIPS3_S5_EEmRKS3_@Base 1.4
 _ZNSt6vectorIPN9__gnu_cxx15_Hashtable_nodeIjEESaIS3_EE14_M_fill_insertENS0_17__normal_iteratorIPS3_S5_EEmRKS3_@Base 1.4
 _ZNSt6vectorIPN9__gnu_cxx15_Hashtable_nodeImEESaIS3_EE14_M_fill_insertENS0_17__normal_iteratorIPS3_S5_EEmRKS3_@Base 1.4
 _ZNSt6vectorIPcSaIS0_EE13_M_insert_auxEN9__gnu_cxx17__normal_iteratorIPS0_S2_EERKS0_@Base 1.4
 _ZNSt6vectorIS_IN4CVC44ExprESaIS1_EESaIS3_EE14_M_fill_insertEN9__gnu_cxx17__normal_iteratorIPS3_S5_EEmRKS3_@Base 1.4
 _ZNSt6vectorIS_IN4CVC44ExprESaIS1_EESaIS3_EE6resizeEmS3_@Base 1.4
 _ZNSt6vectorIS_IN4CVC44ExprESaIS1_EESaIS3_EED1Ev@Base 1.4
 _ZNSt6vectorIS_IN4CVC44ExprESaIS1_EESaIS3_EED2Ev@Base 1.4
 _ZNSt6vectorIS_IiSaIiEESaIS1_EE13_M_insert_auxEN9__gnu_cxx17__normal_iteratorIPS1_S3_EERKS1_@Base 1.4
 _ZNSt6vectorIS_IjSaIjEESaIS1_EE13_M_insert_auxEN9__gnu_cxx17__normal_iteratorIPS1_S3_EERKS1_@Base 1.4
 _ZNSt6vectorIS_IjSaIjEESaIS1_EE9push_backERKS1_@Base 1.4
 _ZNSt6vectorIS_IjSaIjEESaIS1_EED1Ev@Base 1.4
 _ZNSt6vectorIS_IjSaIjEESaIS1_EED2Ev@Base 1.4
 _ZNSt6vectorISsSaISsEE13_M_insert_auxEN9__gnu_cxx17__normal_iteratorIPSsS1_EERKSs@Base 1.4
 _ZNSt6vectorISsSaISsEE14_M_fill_insertEN9__gnu_cxx17__normal_iteratorIPSsS1_EEmRKSs@Base 1.4
 _ZNSt6vectorISsSaISsEED1Ev@Base 1.4
 _ZNSt6vectorISsSaISsEED2Ev@Base 1.4
 _ZNSt6vectorISsSaISsEEaSERKS1_@Base 1.4
 _ZNSt6vectorISt4pairISsN4CVC44TypeEESaIS3_EE13_M_insert_auxEN9__gnu_cxx17__normal_iteratorIPS3_S5_EERKS3_@Base 1.4
 _ZNSt6vectorISt4pairISsN4CVC44TypeEESaIS3_EE9push_backERKS3_@Base 1.4
 _ZNSt6vectorISt4pairISsN4CVC44TypeEESaIS3_EEC1ERKS5_@Base 1.4
 _ZNSt6vectorISt4pairISsN4CVC44TypeEESaIS3_EEC2ERKS5_@Base 1.4
 _ZNSt6vectorISt4pairISsN4CVC44TypeEESaIS3_EED1Ev@Base 1.4
 _ZNSt6vectorISt4pairISsN4CVC44TypeEESaIS3_EED2Ev@Base 1.4
 _ZNSt6vectorISt4pairIiiESaIS1_EE15_M_range_insertIN9__gnu_cxx17__normal_iteratorIPS1_S3_EEEEvS8_T_S9_St20forward_iterator_tag@Base 1.4
 _ZNSt6vectorISt4pairIjN4CVC48RationalEESaIS3_EED1Ev@Base 1.4
 _ZNSt6vectorISt4pairIjN4CVC48RationalEESaIS3_EED2Ev@Base 1.4
 _ZNSt6vectorISt4pairIjN4CVC48RationalEESaIS3_EEaSERKS5_@Base 1.4
 _ZNSt6vectorISt4pairIjbESaIS1_EE14_M_fill_insertEN9__gnu_cxx17__normal_iteratorIPS1_S3_EEmRKS1_@Base 1.4
 _ZNSt6vectorISt4pairIjiESaIS1_EE13_M_insert_auxEN9__gnu_cxx17__normal_iteratorIPS1_S3_EERKS1_@Base 1.4
 _ZNSt6vectorISt4pairIjjESaIS1_EE13_M_insert_auxEN9__gnu_cxx17__normal_iteratorIPS1_S3_EERKS1_@Base 1.4
 _ZNSt6vectorISt4pairIjjESaIS1_EE14_M_fill_insertEN9__gnu_cxx17__normal_iteratorIPS1_S3_EEmRKS1_@Base 1.4
 _ZNSt6vectorISt4pairIjjESaIS1_EE9push_backERKS1_@Base 1.4
 _ZNSt6vectorIbSaIbEE13_M_insert_auxESt13_Bit_iteratorb@Base 1.4
 _ZNSt6vectorIbSaIbEE14_M_fill_insertESt13_Bit_iteratormb@Base 1.4
 _ZNSt6vectorIbSaIbEE6resizeEmb@Base 1.4
 _ZNSt6vectorIbSaIbEE9push_backEb@Base 1.4
 _ZNSt6vectorIcSaIcEE13_M_insert_auxEN9__gnu_cxx17__normal_iteratorIPcS1_EERKc@Base 1.4
 _ZNSt6vectorIcSaIcEE15_M_range_insertIN9__gnu_cxx17__normal_iteratorIPcS1_EEEEvS6_T_S7_St20forward_iterator_tag@Base 1.4
 _ZNSt6vectorIcSaIcEE9push_backERKc@Base 1.4
 _ZNSt6vectorIdSaIdEE13_M_insert_auxEN9__gnu_cxx17__normal_iteratorIPdS1_EERKd@Base 1.4
 _ZNSt6vectorIdSaIdEEC1ERKS1_@Base 1.4
 _ZNSt6vectorIdSaIdEEC2ERKS1_@Base 1.4
 _ZNSt6vectorIiSaIiEE13_M_insert_auxEN9__gnu_cxx17__normal_iteratorIPiS1_EERKi@Base 1.4
 _ZNSt6vectorIiSaIiEE14_M_fill_insertEN9__gnu_cxx17__normal_iteratorIPiS1_EEmRKi@Base 1.4
 _ZNSt6vectorIiSaIiEE15_M_range_insertIN9__gnu_cxx17__normal_iteratorIPiS1_EEEEvS6_T_S7_St20forward_iterator_tag@Base 1.4
 _ZNSt6vectorIiSaIiEE9push_backERKi@Base 1.4
 _ZNSt6vectorIiSaIiEEC1ERKS1_@Base 1.4
 _ZNSt6vectorIiSaIiEEC2ERKS1_@Base 1.4
 _ZNSt6vectorIiSaIiEEaSERKS1_@Base 1.4
 _ZNSt6vectorIjSaIjEE13_M_insert_auxEN9__gnu_cxx17__normal_iteratorIPjS1_EERKj@Base 1.4
 _ZNSt6vectorIjSaIjEE14_M_fill_insertEN9__gnu_cxx17__normal_iteratorIPjS1_EEmRKj@Base 1.4
 _ZNSt6vectorIjSaIjEE15_M_range_insertIN9__gnu_cxx17__normal_iteratorIPKjS1_EEEEvNS4_IPjS1_EET_SA_St20forward_iterator_tag@Base 1.4
 _ZNSt6vectorIjSaIjEE6resizeEmj@Base 1.4
 _ZNSt6vectorIjSaIjEE9push_backERKj@Base 1.4
 _ZNSt6vectorIjSaIjEEC1ERKS1_@Base 1.4
 _ZNSt6vectorIjSaIjEEC2ERKS1_@Base 1.4
 _ZNSt6vectorIjSaIjEEaSERKS1_@Base 1.4
 _ZNSt6vectorImSaImEE13_M_insert_auxEN9__gnu_cxx17__normal_iteratorIPmS1_EERKm@Base 1.4
 _ZNSt6vectorImSaImEE9push_backERKm@Base 1.4
 _ZNSt8_Rb_treeIN4CVC44TypeES1_St9_IdentityIS1_ESt4lessIS1_ESaIS1_EE16_M_insert_uniqueERKS1_@Base 1.4
 _ZNSt8_Rb_treeIN4CVC44TypeES1_St9_IdentityIS1_ESt4lessIS1_ESaIS1_EE8_M_eraseEPSt13_Rb_tree_nodeIS1_E@Base 1.4
 _ZNSt8_Rb_treeISsSsSt9_IdentityISsESt4lessISsESaISsEE16_M_insert_uniqueERKSs@Base 1.4
 _ZNSt8_Rb_treeISsSsSt9_IdentityISsESt4lessISsESaISsEE4findERKSs@Base 1.4
 _ZNSt8_Rb_treeISsSsSt9_IdentityISsESt4lessISsESaISsEE8_M_eraseEPSt13_Rb_tree_nodeISsE@Base 1.4
 _ZNSt8_Rb_treeISsSt4pairIKSsN4CVC412DatatypeTypeEESt10_Select1stIS4_ESt4lessISsESaIS4_EE16_M_insert_uniqueERKS4_@Base 1.4
 _ZNSt8_Rb_treeISsSt4pairIKSsN4CVC412DatatypeTypeEESt10_Select1stIS4_ESt4lessISsESaIS4_EE4findERS1_@Base 1.4
 _ZNSt8_Rb_treeISsSt4pairIKSsN4CVC412DatatypeTypeEESt10_Select1stIS4_ESt4lessISsESaIS4_EE8_M_eraseEPSt13_Rb_tree_nodeIS4_E@Base 1.4
 _ZNSt8_Rb_treeISsSt4pairIKSsN4CVC47IntegerEESt10_Select1stIS4_ESt4lessISsESaIS4_EE17_M_insert_unique_ESt23_Rb_tree_const_iteratorIS4_ERKS4_@Base 1.4
 _ZNSt8_Rb_treeISsSt4pairIKSsN4CVC47IntegerEESt10_Select1stIS4_ESt4lessISsESaIS4_EE24_M_get_insert_unique_posERS1_@Base 1.4
 _ZNSt8_Rb_treeISsSt4pairIKSsN4CVC47IntegerEESt10_Select1stIS4_ESt4lessISsESaIS4_EE8_M_eraseEPSt13_Rb_tree_nodeIS4_E@Base 1.4
 _ZNSt8_Rb_treeISsSt4pairIKSsN9__gnu_cxx8hash_setIPKN4CVC419DatatypeConstructorENS4_20DatatypeHashFunctionESt8equal_toIS7_ESaIS7_EEEESt10_Select1stISD_ESt4lessISsESaISD_EE10_M_insert_EPSt18_Rb_tree_node_baseSL_RKSD_@Base 1.4
 _ZNSt8_Rb_treeISsSt4pairIKSsN9__gnu_cxx8hash_setIPKN4CVC419DatatypeConstructorENS4_20DatatypeHashFunctionESt8equal_toIS7_ESaIS7_EEEESt10_Select1stISD_ESt4lessISsESaISD_EE24_M_get_insert_unique_posERS1_@Base 1.4
 _ZNSt8_Rb_treeISsSt4pairIKSsN9__gnu_cxx8hash_setIPKN4CVC419DatatypeConstructorENS4_20DatatypeHashFunctionESt8equal_toIS7_ESaIS7_EEEESt10_Select1stISD_ESt4lessISsESaISD_EE29_M_get_insert_hint_unique_posESt23_Rb_tree_const_iteratorISD_ERS1_@Base 1.4
 _ZNSt8_Rb_treeISsSt4pairIKSsN9__gnu_cxx8hash_setIPKN4CVC419DatatypeConstructorENS4_20DatatypeHashFunctionESt8equal_toIS7_ESaIS7_EEEESt10_Select1stISD_ESt4lessISsESaISD_EE8_M_eraseEPSt13_Rb_tree_nodeISD_E@Base 1.4
 _ZNSt8_Rb_treeISsSt4pairIKSsN9__gnu_cxx8hash_setIPKN4CVC48DatatypeENS4_20DatatypeHashFunctionESt8equal_toIS7_ESaIS7_EEEESt10_Select1stISD_ESt4lessISsESaISD_EE10_M_insert_EPSt18_Rb_tree_node_baseSL_RKSD_@Base 1.4
 _ZNSt8_Rb_treeISsSt4pairIKSsN9__gnu_cxx8hash_setIPKN4CVC48DatatypeENS4_20DatatypeHashFunctionESt8equal_toIS7_ESaIS7_EEEESt10_Select1stISD_ESt4lessISsESaISD_EE24_M_get_insert_unique_posERS1_@Base 1.4
 _ZNSt8_Rb_treeISsSt4pairIKSsN9__gnu_cxx8hash_setIPKN4CVC48DatatypeENS4_20DatatypeHashFunctionESt8equal_toIS7_ESaIS7_EEEESt10_Select1stISD_ESt4lessISsESaISD_EE29_M_get_insert_hint_unique_posESt23_Rb_tree_const_iteratorISD_ERS1_@Base 1.4
 _ZNSt8_Rb_treeISsSt4pairIKSsN9__gnu_cxx8hash_setIPKN4CVC48DatatypeENS4_20DatatypeHashFunctionESt8equal_toIS7_ESaIS7_EEEESt10_Select1stISD_ESt4lessISsESaISD_EE8_M_eraseEPSt13_Rb_tree_nodeISD_E@Base 1.4
 _ZNSt8_Rb_treeISsSt4pairIKSsbESt10_Select1stIS2_ESt4lessISsESaIS2_EE24_M_get_insert_unique_posERS1_@Base 1.4
 _ZNSt8_Rb_treeISsSt4pairIKSsbESt10_Select1stIS2_ESt4lessISsESaIS2_EE29_M_get_insert_hint_unique_posESt23_Rb_tree_const_iteratorIS2_ERS1_@Base 1.4
 _ZNSt8_Rb_treeISsSt4pairIKSsbESt10_Select1stIS2_ESt4lessISsESaIS2_EE7_M_copyEPKSt13_Rb_tree_nodeIS2_EPSA_@Base 1.4
 _ZNSt8_Rb_treeISsSt4pairIKSsbESt10_Select1stIS2_ESt4lessISsESaIS2_EE8_M_eraseEPSt13_Rb_tree_nodeIS2_E@Base 1.4
 _ZNSt8_Rb_treeISt4pairIPKcmES3_St9_IdentityIS3_ESt4lessIS3_ESaIS3_EE16_M_insert_uniqueERKS3_@Base 1.4
 _ZNSt8_Rb_treeISt4pairIPKcmES3_St9_IdentityIS3_ESt4lessIS3_ESaIS3_EE8_M_eraseEPSt13_Rb_tree_nodeIS3_E@Base 1.4
 _ZNSt8_Rb_treeISt4pairIiSsES1_St9_IdentityIS1_ESt4lessIS1_ESaIS1_EE24_M_get_insert_unique_posERKS1_@Base 1.4
 _ZNSt8_Rb_treeISt4pairIiSsES1_St9_IdentityIS1_ESt4lessIS1_ESaIS1_EE8_M_eraseEPSt13_Rb_tree_nodeIS1_E@Base 1.4
 _ZNSt8_Rb_treeIiSt4pairIKiSt6vectorIiSaIiEEESt10_Select1stIS5_ESt4lessIiESaIS5_EE17_M_insert_unique_ESt23_Rb_tree_const_iteratorIS5_ERKS5_@Base 1.4
 _ZNSt8_Rb_treeIiSt4pairIKiSt6vectorIiSaIiEEESt10_Select1stIS5_ESt4lessIiESaIS5_EE24_M_get_insert_unique_posERS1_@Base 1.4
 _ZNSt8_Rb_treeIiSt4pairIKiSt6vectorIiSaIiEEESt10_Select1stIS5_ESt4lessIiESaIS5_EE8_M_eraseEPSt13_Rb_tree_nodeIS5_E@Base 1.4
 _ZNSt8_Rb_treeIiSt4pairIKibESt10_Select1stIS2_ESt4lessIiESaIS2_EE17_M_insert_unique_ESt23_Rb_tree_const_iteratorIS2_ERKS2_@Base 1.4
 _ZNSt8_Rb_treeIiSt4pairIKibESt10_Select1stIS2_ESt4lessIiESaIS2_EE24_M_get_insert_unique_posERS1_@Base 1.4
 _ZNSt8_Rb_treeIiSt4pairIKibESt10_Select1stIS2_ESt4lessIiESaIS2_EE29_M_get_insert_hint_unique_posESt23_Rb_tree_const_iteratorIS2_ERS1_@Base 1.4
 _ZNSt8_Rb_treeIiSt4pairIKibESt10_Select1stIS2_ESt4lessIiESaIS2_EE4findERS1_@Base 1.4
 _ZNSt8_Rb_treeIiSt4pairIKibESt10_Select1stIS2_ESt4lessIiESaIS2_EE8_M_eraseEPSt13_Rb_tree_nodeIS2_E@Base 1.4
 _ZNSt8_Rb_treeIiSt4pairIKiiESt10_Select1stIS2_ESt4lessIiESaIS2_EE17_M_insert_unique_ESt23_Rb_tree_const_iteratorIS2_ERKS2_@Base 1.4
 _ZNSt8_Rb_treeIiSt4pairIKiiESt10_Select1stIS2_ESt4lessIiESaIS2_EE24_M_get_insert_unique_posERS1_@Base 1.4
 _ZNSt8_Rb_treeIiSt4pairIKiiESt10_Select1stIS2_ESt4lessIiESaIS2_EE29_M_get_insert_hint_unique_posESt23_Rb_tree_const_iteratorIS2_ERS1_@Base 1.4
 _ZNSt8_Rb_treeIiSt4pairIKiiESt10_Select1stIS2_ESt4lessIiESaIS2_EE7_M_copyEPKSt13_Rb_tree_nodeIS2_EPSA_@Base 1.4
 _ZNSt8_Rb_treeIiSt4pairIKiiESt10_Select1stIS2_ESt4lessIiESaIS2_EE8_M_eraseEPSt13_Rb_tree_nodeIS2_E@Base 1.4
 _ZNSt8_Rb_treeIiSt4pairIKiiESt10_Select1stIS2_ESt4lessIiESaIS2_EEaSERKS8_@Base 1.4
 _ZNSt8_Rb_treeIiiSt9_IdentityIiESt4lessIiESaIiEE16_M_insert_uniqueERKi@Base 1.4
 _ZNSt8_Rb_treeIiiSt9_IdentityIiESt4lessIiESaIiEE8_M_eraseEPSt13_Rb_tree_nodeIiE@Base 1.4
 _ZNSt8_Rb_treeIjSt4pairIKjbESt10_Select1stIS2_ESt4lessIjESaIS2_EE24_M_get_insert_unique_posERS1_@Base 1.4
 _ZNSt8_Rb_treeIjSt4pairIKjbESt10_Select1stIS2_ESt4lessIjESaIS2_EE29_M_get_insert_hint_unique_posESt23_Rb_tree_const_iteratorIS2_ERS1_@Base 1.4
 _ZNSt8_Rb_treeIjSt4pairIKjbESt10_Select1stIS2_ESt4lessIjESaIS2_EE8_M_eraseEPSt13_Rb_tree_nodeIS2_E@Base 1.4
 _ZNSt8_Rb_treeIjSt4pairIKjiESt10_Select1stIS2_ESt4lessIjESaIS2_EE24_M_get_insert_unique_posERS1_@Base 1.4
 _ZNSt8_Rb_treeIjSt4pairIKjiESt10_Select1stIS2_ESt4lessIjESaIS2_EE29_M_get_insert_hint_unique_posESt23_Rb_tree_const_iteratorIS2_ERS1_@Base 1.4
 _ZNSt8_Rb_treeIjSt4pairIKjiESt10_Select1stIS2_ESt4lessIjESaIS2_EE8_M_eraseEPSt13_Rb_tree_nodeIS2_E@Base 1.4
 _ZNSt8_Rb_treeIjSt4pairIKjjESt10_Select1stIS2_ESt4lessIjESaIS2_EE10_M_insert_EPSt18_Rb_tree_node_baseSA_RKS2_@Base 1.4
 _ZNSt8_Rb_treeIjSt4pairIKjjESt10_Select1stIS2_ESt4lessIjESaIS2_EE24_M_get_insert_unique_posERS1_@Base 1.4
 _ZNSt8_Rb_treeIjSt4pairIKjjESt10_Select1stIS2_ESt4lessIjESaIS2_EE29_M_get_insert_hint_unique_posESt23_Rb_tree_const_iteratorIS2_ERS1_@Base 1.4
 _ZNSt8_Rb_treeIjSt4pairIKjjESt10_Select1stIS2_ESt4lessIjESaIS2_EE8_M_eraseEPSt13_Rb_tree_nodeIS2_E@Base 1.4
 _ZNSt8_Rb_treeIjjSt9_IdentityIjESt4lessIjESaIjEE16_M_insert_uniqueERKj@Base 1.4
 _ZNSt8_Rb_treeIjjSt9_IdentityIjESt4lessIjESaIjEE16_M_insert_uniqueISt23_Rb_tree_const_iteratorIjEEEvT_S9_@Base 1.4
 _ZNSt8_Rb_treeIjjSt9_IdentityIjESt4lessIjESaIjEE24_M_get_insert_unique_posERKj@Base 1.4
 _ZNSt8_Rb_treeIjjSt9_IdentityIjESt4lessIjESaIjEE7_M_copyEPKSt13_Rb_tree_nodeIjEPS7_@Base 1.4
 _ZNSt8_Rb_treeIjjSt9_IdentityIjESt4lessIjESaIjEE8_M_eraseEPSt13_Rb_tree_nodeIjE@Base 1.4
 _ZNSt8_Rb_treeIjjSt9_IdentityIjESt4lessIjESaIjEEaSERKS5_@Base 1.4
 _ZNSt8_Rb_treeImSt4pairIKmSt6vectorImSaImEEESt10_Select1stIS5_ESt4lessImESaIS5_EE17_M_insert_unique_ESt23_Rb_tree_const_iteratorIS5_ERKS5_@Base 1.4
 _ZNSt8_Rb_treeImSt4pairIKmSt6vectorImSaImEEESt10_Select1stIS5_ESt4lessImESaIS5_EE24_M_get_insert_unique_posERS1_@Base 1.4
 _ZNSt8_Rb_treeImSt4pairIKmSt6vectorImSaImEEESt10_Select1stIS5_ESt4lessImESaIS5_EE8_M_eraseEPSt13_Rb_tree_nodeIS5_E@Base 1.4
 _ZNSt8ios_base5iwordEi@Base 1.4
 _ZSt13__copy_move_aILb0EPKN4CVC44ExprESt16ostream_iteratorIS1_cSt11char_traitsIcEEET1_T0_S9_S8_@Base 1.4
 _ZSt13__copy_move_aILb0EPKN4CVC44TypeESt16ostream_iteratorIS1_cSt11char_traitsIcEEET1_T0_S9_S8_@Base 1.4
 _ZSt13binary_searchIN9__gnu_cxx17__normal_iteratorIPKmSt6vectorImSaImEEEEmEbT_S8_RKT0_@Base 1.4
 _ZSt4fillImEvRKSt15_Deque_iteratorIT_RS1_PS1_ES6_RKS1_@Base 1.4
 _ZSt4fillSt13_Bit_iteratorS_RKb@Base 1.4
 _ZSt4findIN9__gnu_cxx17__normal_iteratorIPiSt6vectorIiSaIiEEEEiET_S7_S7_RKT0_@Base 1.4
 _ZSt5fixedRSt8ios_base@Base 1.4
 _ZSt9transformIN9__gnu_cxx17__normal_iteratorIPN4CVC44ExprESt6vectorIS3_SaIS3_EEEESt20back_insert_iteratorIS7_ENS2_7Command17ExportTransformerEET0_T_SE_SD_T1_@Base 1.4
 _ZStplIcSt11char_traitsIcESaIcEESbIT_T0_T1_EPKS3_RKS6_@Base 1.4
 _ZStplIcSt11char_traitsIcESaIcEESbIT_T0_T1_ERKS6_PKS3_@Base 1.4
 _ZStplIcSt11char_traitsIcESaIcEESbIT_T0_T1_ERKS6_S8_@Base 1.4
 _ZTIN4CVC410PopCommandE@Base 1.4
 _ZTIN4CVC410RecordTypeE@Base 1.4
 _ZTIN4CVC410StatisticsE@Base 1.4
 _ZTIN4CVC410StringTypeE@Base 1.4
 _ZTIN4CVC410TesterTypeE@Base 1.4
 _ZTIN4CVC411BooleanTypeE@Base 1.4
 _ZTIN4CVC411EchoCommandE@Base 1.4
 _ZTIN4CVC411IntegerTypeE@Base 1.4
 _ZTIN4CVC411PushCommandE@Base 1.4
 _ZTIN4CVC411QuitCommandE@Base 1.4
 _ZTIN4CVC412DatatypeTypeE@Base 1.4
 _ZTIN4CVC412EmptyCommandE@Base 1.4
 _ZTIN4CVC412FunctionTypeE@Base 1.4
 _ZTIN4CVC412QueryCommandE@Base 1.4
 _ZTIN4CVC412SelectorTypeE@Base 1.4
 _ZTIN4CVC412SubrangeTypeE@Base 1.4
 _ZTIN4CVC413AssertCommandE@Base 1.4
 _ZTIN4CVC413BitVectorTypeE@Base 1.4
 _ZTIN4CVC413CommandStatusE@Base 1.4
 _ZTIN4CVC414CommandFailureE@Base 1.4
 _ZTIN4CVC414CommandSuccessE@Base 1.4
 _ZTIN4CVC414CommentCommandE@Base 1.4
 _ZTIN4CVC414GetInfoCommandE@Base 1.4
 _ZTIN4CVC414LogicExceptionE@Base 1.4
 _ZTIN4CVC414ModalExceptionE@Base 1.4
 _ZTIN4CVC414ScopeExceptionE@Base 1.4
 _ZTIN4CVC414SetInfoCommandE@Base 1.4
 _ZTIN4CVC414StatisticsBaseE@Base 1.4
 _ZTIN4CVC414null_streambufE@Base 1.4
 _ZTIN4CVC415CheckSatCommandE@Base 1.4
 _ZTIN4CVC415CommandSequenceE@Base 1.4
 _ZTIN4CVC415ConstructorTypeE@Base 1.4
 _ZTIN4CVC415GetModelCommandE@Base 1.4
 _ZTIN4CVC415GetProofCommandE@Base 1.4
 _ZTIN4CVC415GetValueCommandE@Base 1.4
 _ZTIN4CVC415OptionExceptionE@Base 1.4
 _ZTIN4CVC415SimplifyCommandE@Base 1.4
 _ZTIN4CVC416GetOptionCommandE@Base 1.4
 _ZTIN4CVC416SetOptionCommandE@Base 1.4
 _ZTIN4CVC417DefineTypeCommandE@Base 1.4
 _ZTIN4CVC418CommandUnsupportedE@Base 1.4
 _ZTIN4CVC418DeclareTypeCommandE@Base 1.4
 _ZTIN4CVC418RewriteRuleCommandE@Base 1.4
 _ZTIN4CVC419DeclarationSequenceE@Base 1.4
 _ZTIN4CVC419GetUnsatCoreCommandE@Base 1.4
 _ZTIN4CVC419SortConstructorTypeE@Base 1.4
 _ZTIN4CVC420GetAssertionsCommandE@Base 1.4
 _ZTIN4CVC420GetAssignmentCommandE@Base 1.4
 _ZTIN4CVC420PropagateRuleCommandE@Base 1.4
 _ZTIN4CVC421DefineFunctionCommandE@Base 1.4
 _ZTIN4CVC421TypeCheckingExceptionE@Base 1.4
 _ZTIN4CVC422DeclareFunctionCommandE@Base 1.4
 _ZTIN4CVC423SetUserAttributeCommandE@Base 1.4
 _ZTIN4CVC424ExpandDefinitionsCommandE@Base 1.4
 _ZTIN4CVC424GetInstantiationsCommandE@Base 1.4
 _ZTIN4CVC424IllegalArgumentExceptionE@Base 1.4
 _ZTIN4CVC424SetBenchmarkLogicCommandE@Base 1.4
 _ZTIN4CVC425SetBenchmarkStatusCommandE@Base 1.4
 _ZTIN4CVC426DatatypeDeclarationCommandE@Base 1.4
 _ZTIN4CVC426DefineNamedFunctionCommandE@Base 1.4
 _ZTIN4CVC426ExportUnsupportedExceptionE@Base 1.4
 _ZTIN4CVC427DatatypeResolutionExceptionE@Base 1.4
 _ZTIN4CVC427RationalFromDoubleExceptionE@Base 1.4
 _ZTIN4CVC427UnrecognizedOptionExceptionE@Base 1.4
 _ZTIN4CVC428DeclarationDefinitionCommandE@Base 1.4
 _ZTIN4CVC44TypeE@Base 1.4
 _ZTIN4CVC44expr6pickle10MapPicklerE@Base 1.4
 _ZTIN4CVC44expr6pickle17PicklingExceptionE@Base 1.4
 _ZTIN4CVC44expr6pickle7PicklerE@Base 1.4
 _ZTIN4CVC45ProofE@Base 1.4
 _ZTIN4CVC47CommandE@Base 1.4
 _ZTIN4CVC47SetTypeE@Base 1.4
 _ZTIN4CVC48RealTypeE@Base 1.4
 _ZTIN4CVC48SortTypeE@Base 1.4
 _ZTIN4CVC49ArrayTypeE@Base 1.4
 _ZTIN4CVC49ExceptionE@Base 1.4
 _ZTIN4CVC49SExprTypeE@Base 1.4
 _ZTIN4CVC49TupleTypeE@Base 1.4
 _ZTSN4CVC410PopCommandE@Base 1.4
 _ZTSN4CVC410RecordTypeE@Base 1.4
 _ZTSN4CVC410StatisticsE@Base 1.4
 _ZTSN4CVC410StringTypeE@Base 1.4
 _ZTSN4CVC410TesterTypeE@Base 1.4
 _ZTSN4CVC411BooleanTypeE@Base 1.4
 _ZTSN4CVC411EchoCommandE@Base 1.4
 _ZTSN4CVC411IntegerTypeE@Base 1.4
 _ZTSN4CVC411PushCommandE@Base 1.4
 _ZTSN4CVC411QuitCommandE@Base 1.4
 _ZTSN4CVC412DatatypeTypeE@Base 1.4
 _ZTSN4CVC412EmptyCommandE@Base 1.4
 _ZTSN4CVC412FunctionTypeE@Base 1.4
 _ZTSN4CVC412QueryCommandE@Base 1.4
 _ZTSN4CVC412SelectorTypeE@Base 1.4
 _ZTSN4CVC412SubrangeTypeE@Base 1.4
 _ZTSN4CVC413AssertCommandE@Base 1.4
 _ZTSN4CVC413BitVectorTypeE@Base 1.4
 _ZTSN4CVC413CommandStatusE@Base 1.4
 _ZTSN4CVC414CommandFailureE@Base 1.4
 _ZTSN4CVC414CommandSuccessE@Base 1.4
 _ZTSN4CVC414CommentCommandE@Base 1.4
 _ZTSN4CVC414GetInfoCommandE@Base 1.4
 _ZTSN4CVC414LogicExceptionE@Base 1.4
 _ZTSN4CVC414ModalExceptionE@Base 1.4
 _ZTSN4CVC414ScopeExceptionE@Base 1.4
 _ZTSN4CVC414SetInfoCommandE@Base 1.4
 _ZTSN4CVC414StatisticsBaseE@Base 1.4
 _ZTSN4CVC414null_streambufE@Base 1.4
 _ZTSN4CVC415CheckSatCommandE@Base 1.4
 _ZTSN4CVC415CommandSequenceE@Base 1.4
 _ZTSN4CVC415ConstructorTypeE@Base 1.4
 _ZTSN4CVC415GetModelCommandE@Base 1.4
 _ZTSN4CVC415GetProofCommandE@Base 1.4
 _ZTSN4CVC415GetValueCommandE@Base 1.4
 _ZTSN4CVC415OptionExceptionE@Base 1.4
 _ZTSN4CVC415SimplifyCommandE@Base 1.4
 _ZTSN4CVC416GetOptionCommandE@Base 1.4
 _ZTSN4CVC416SetOptionCommandE@Base 1.4
 _ZTSN4CVC417DefineTypeCommandE@Base 1.4
 _ZTSN4CVC418CommandUnsupportedE@Base 1.4
 _ZTSN4CVC418DeclareTypeCommandE@Base 1.4
 _ZTSN4CVC418RewriteRuleCommandE@Base 1.4
 _ZTSN4CVC419DeclarationSequenceE@Base 1.4
 _ZTSN4CVC419GetUnsatCoreCommandE@Base 1.4
 _ZTSN4CVC419SortConstructorTypeE@Base 1.4
 _ZTSN4CVC420GetAssertionsCommandE@Base 1.4
 _ZTSN4CVC420GetAssignmentCommandE@Base 1.4
 _ZTSN4CVC420PropagateRuleCommandE@Base 1.4
 _ZTSN4CVC421DefineFunctionCommandE@Base 1.4
 _ZTSN4CVC421TypeCheckingExceptionE@Base 1.4
 _ZTSN4CVC422DeclareFunctionCommandE@Base 1.4
 _ZTSN4CVC423SetUserAttributeCommandE@Base 1.4
 _ZTSN4CVC424ExpandDefinitionsCommandE@Base 1.4
 _ZTSN4CVC424GetInstantiationsCommandE@Base 1.4
 _ZTSN4CVC424IllegalArgumentExceptionE@Base 1.4
 _ZTSN4CVC424SetBenchmarkLogicCommandE@Base 1.4
 _ZTSN4CVC425SetBenchmarkStatusCommandE@Base 1.4
 _ZTSN4CVC426DatatypeDeclarationCommandE@Base 1.4
 _ZTSN4CVC426DefineNamedFunctionCommandE@Base 1.4
 _ZTSN4CVC426ExportUnsupportedExceptionE@Base 1.4
 _ZTSN4CVC427DatatypeResolutionExceptionE@Base 1.4
 _ZTSN4CVC427RationalFromDoubleExceptionE@Base 1.4
 _ZTSN4CVC427UnrecognizedOptionExceptionE@Base 1.4
 _ZTSN4CVC428DeclarationDefinitionCommandE@Base 1.4
 _ZTSN4CVC44TypeE@Base 1.4
 _ZTSN4CVC44expr6pickle10MapPicklerE@Base 1.4
 _ZTSN4CVC44expr6pickle17PicklingExceptionE@Base 1.4
 _ZTSN4CVC44expr6pickle7PicklerE@Base 1.4
 _ZTSN4CVC45ProofE@Base 1.4
 _ZTSN4CVC47CommandE@Base 1.4
 _ZTSN4CVC47SetTypeE@Base 1.4
 _ZTSN4CVC48RealTypeE@Base 1.4
 _ZTSN4CVC48SortTypeE@Base 1.4
 _ZTSN4CVC49ArrayTypeE@Base 1.4
 _ZTSN4CVC49ExceptionE@Base 1.4
 _ZTSN4CVC49SExprTypeE@Base 1.4
 _ZTSN4CVC49TupleTypeE@Base 1.4
 _ZTVN4CVC410PopCommandE@Base 1.4
 _ZTVN4CVC410RecordTypeE@Base 1.4
 _ZTVN4CVC410StatisticsE@Base 1.4
 _ZTVN4CVC410StringTypeE@Base 1.4
 _ZTVN4CVC410TesterTypeE@Base 1.4
 _ZTVN4CVC411BooleanTypeE@Base 1.4
 _ZTVN4CVC411EchoCommandE@Base 1.4
 _ZTVN4CVC411IntegerTypeE@Base 1.4
 _ZTVN4CVC411PushCommandE@Base 1.4
 _ZTVN4CVC411QuitCommandE@Base 1.4
 _ZTVN4CVC412DatatypeTypeE@Base 1.4
 _ZTVN4CVC412EmptyCommandE@Base 1.4
 _ZTVN4CVC412FunctionTypeE@Base 1.4
 _ZTVN4CVC412QueryCommandE@Base 1.4
 _ZTVN4CVC412SelectorTypeE@Base 1.4
 _ZTVN4CVC412SubrangeTypeE@Base 1.4
 _ZTVN4CVC413AssertCommandE@Base 1.4
 _ZTVN4CVC413BitVectorTypeE@Base 1.4
 _ZTVN4CVC413CommandStatusE@Base 1.4
 _ZTVN4CVC414CommandFailureE@Base 1.4
 _ZTVN4CVC414CommandSuccessE@Base 1.4
 _ZTVN4CVC414CommentCommandE@Base 1.4
 _ZTVN4CVC414GetInfoCommandE@Base 1.4
 _ZTVN4CVC414LogicExceptionE@Base 1.4
 _ZTVN4CVC414ModalExceptionE@Base 1.4
 _ZTVN4CVC414ScopeExceptionE@Base 1.4
 _ZTVN4CVC414SetInfoCommandE@Base 1.4
 _ZTVN4CVC414StatisticsBaseE@Base 1.4
 _ZTVN4CVC414null_streambufE@Base 1.4
 _ZTVN4CVC415CheckSatCommandE@Base 1.4
 _ZTVN4CVC415CommandSequenceE@Base 1.4
 _ZTVN4CVC415ConstructorTypeE@Base 1.4
 _ZTVN4CVC415GetModelCommandE@Base 1.4
 _ZTVN4CVC415GetProofCommandE@Base 1.4
 _ZTVN4CVC415GetValueCommandE@Base 1.4
 _ZTVN4CVC415OptionExceptionE@Base 1.4
 _ZTVN4CVC415SimplifyCommandE@Base 1.4
 _ZTVN4CVC416GetOptionCommandE@Base 1.4
 _ZTVN4CVC416SetOptionCommandE@Base 1.4
 _ZTVN4CVC417DefineTypeCommandE@Base 1.4
 _ZTVN4CVC418CommandUnsupportedE@Base 1.4
 _ZTVN4CVC418DeclareTypeCommandE@Base 1.4
 _ZTVN4CVC418RewriteRuleCommandE@Base 1.4
 _ZTVN4CVC419GetUnsatCoreCommandE@Base 1.4
 _ZTVN4CVC419SortConstructorTypeE@Base 1.4
 _ZTVN4CVC420GetAssertionsCommandE@Base 1.4
 _ZTVN4CVC420GetAssignmentCommandE@Base 1.4
 _ZTVN4CVC420PropagateRuleCommandE@Base 1.4
 _ZTVN4CVC421DefineFunctionCommandE@Base 1.4
 _ZTVN4CVC421TypeCheckingExceptionE@Base 1.4
 _ZTVN4CVC422DeclareFunctionCommandE@Base 1.4
 _ZTVN4CVC423SetUserAttributeCommandE@Base 1.4
 _ZTVN4CVC424ExpandDefinitionsCommandE@Base 1.4
 _ZTVN4CVC424GetInstantiationsCommandE@Base 1.4
 _ZTVN4CVC424IllegalArgumentExceptionE@Base 1.4
 _ZTVN4CVC424SetBenchmarkLogicCommandE@Base 1.4
 _ZTVN4CVC425SetBenchmarkStatusCommandE@Base 1.4
 _ZTVN4CVC426DatatypeDeclarationCommandE@Base 1.4
 _ZTVN4CVC426DefineNamedFunctionCommandE@Base 1.4
 _ZTVN4CVC426ExportUnsupportedExceptionE@Base 1.4
 _ZTVN4CVC427DatatypeResolutionExceptionE@Base 1.4
 _ZTVN4CVC427RationalFromDoubleExceptionE@Base 1.4
 _ZTVN4CVC427UnrecognizedOptionExceptionE@Base 1.4
 _ZTVN4CVC428DeclarationDefinitionCommandE@Base 1.4
 _ZTVN4CVC44TypeE@Base 1.4
 _ZTVN4CVC44expr6pickle10MapPicklerE@Base 1.4
 _ZTVN4CVC44expr6pickle17PicklingExceptionE@Base 1.4
 _ZTVN4CVC44expr6pickle7PicklerE@Base 1.4
 _ZTVN4CVC45ProofE@Base 1.4
 _ZTVN4CVC47CommandE@Base 1.4
 _ZTVN4CVC47SetTypeE@Base 1.4
 _ZTVN4CVC48RealTypeE@Base 1.4
 _ZTVN4CVC48SortTypeE@Base 1.4
 _ZTVN4CVC49ArrayTypeE@Base 1.4
 _ZTVN4CVC49ExceptionE@Base 1.4
 _ZTVN4CVC49SExprTypeE@Base 1.4
 _ZTVN4CVC49TupleTypeE@Base 1.4
