libcvc4bindings_c_compat.so.3 libcvc4bindings-c-compat2 #MINVER#
 _Z12signal_errorPKciN4CVC49ExceptionE@Base 1.4
 _ZN10CInterface10deleteExprEPv@Base 1.4
 _ZN10CInterface10deleteTypeEPv@Base 1.4
 _ZN10CInterface12deleteVectorEPPv@Base 1.4
 _ZN10CInterface4toOpEPvRKN4CVC34ExprE@Base 1.4
 _ZN10CInterface6fromOpEPv@Base 1.4
 _ZN10CInterface6toExprERKN4CVC34ExprE@Base 1.4
 _ZN10CInterface6toTypeERKN4CVC34TypeE@Base 1.4
 _ZN10CInterface8fromExprEPv@Base 1.4
 _ZN10CInterface8fromTypeEPv@Base 1.4
 _ZN4CVC34TypeD0Ev@Base 1.4
 _ZN4CVC34TypeD1Ev@Base 1.4
 _ZN4CVC34TypeD2Ev@Base 1.4
 _ZN4CVC424IllegalArgumentExceptionD0Ev@Base 1.4
 _ZN4CVC424IllegalArgumentExceptionD1Ev@Base 1.4
 _ZN4CVC424IllegalArgumentExceptionD2Ev@Base 1.4
 _ZN4CVC44kindlsERSoNS0_6Kind_tE@Base 1.4
 _ZN4CVC49ExceptionC1ERKS0_@Base 1.4
 _ZN4CVC49ExceptionC2ERKS0_@Base 1.4
 _ZN4CVC49ExceptionD0Ev@Base 1.4
 _ZN4CVC49ExceptionD1Ev@Base 1.4
 _ZN4CVC49ExceptionD2Ev@Base 1.4
 _ZNK4CVC49Exception4whatEv@Base 1.4
 _ZNK4CVC49Exception8toStreamERSo@Base 1.4
 _ZNKSt5ctypeIcE8do_widenEc@Base 1.4
 _ZNSt12_Destroy_auxILb0EE9__destroyIPSsEEvT_S3_@Base 1.4
 _ZNSt15basic_stringbufIcSt11char_traitsIcESaIcEED0Ev@Base 1.4
 _ZNSt15basic_stringbufIcSt11char_traitsIcESaIcEED1Ev@Base 1.4
 _ZNSt15basic_stringbufIcSt11char_traitsIcESaIcEED2Ev@Base 1.4
 _ZNSt20__uninitialized_copyILb0EE13__uninit_copyIPSt6vectorIN4CVC34ExprESaIS4_EES7_EET0_T_S9_S8_@Base 1.4
 _ZNSt20__uninitialized_copyILb0EE13__uninit_copyIPSt6vectorISsSaISsEES5_EET0_T_S7_S6_@Base 1.4
 _ZNSt22__uninitialized_fill_nILb0EE15__uninit_fill_nIPSt6vectorIN4CVC34ExprESaIS4_EEmS6_EEvT_T0_RKT1_@Base 1.4
 _ZNSt22__uninitialized_fill_nILb0EE15__uninit_fill_nIPSt6vectorISsSaISsEEmS4_EEvT_T0_RKT1_@Base 1.4
 _ZNSt6vectorIN4CVC34ExprESaIS1_EE13_M_insert_auxEN9__gnu_cxx17__normal_iteratorIPS1_S3_EERKS1_@Base 1.4
 _ZNSt6vectorIN4CVC34ExprESaIS1_EEC1ERKS3_@Base 1.4
 _ZNSt6vectorIN4CVC34ExprESaIS1_EEC2ERKS3_@Base 1.4
 _ZNSt6vectorIN4CVC34ExprESaIS1_EED1Ev@Base 1.4
 _ZNSt6vectorIN4CVC34ExprESaIS1_EED2Ev@Base 1.4
 _ZNSt6vectorIN4CVC34ExprESaIS1_EEaSERKS3_@Base 1.4
 _ZNSt6vectorIN4CVC34TypeESaIS1_EE13_M_insert_auxEN9__gnu_cxx17__normal_iteratorIPS1_S3_EERKS1_@Base 1.4
 _ZNSt6vectorIN4CVC34TypeESaIS1_EED1Ev@Base 1.4
 _ZNSt6vectorIN4CVC34TypeESaIS1_EED2Ev@Base 1.4
 _ZNSt6vectorIS_IN4CVC34ExprESaIS1_EESaIS3_EE13_M_insert_auxEN9__gnu_cxx17__normal_iteratorIPS3_S5_EERKS3_@Base 1.4
 _ZNSt6vectorIS_IN4CVC34ExprESaIS1_EESaIS3_EE14_M_fill_insertEN9__gnu_cxx17__normal_iteratorIPS3_S5_EEmRKS3_@Base 1.4
 _ZNSt6vectorIS_IN4CVC34ExprESaIS1_EESaIS3_EED1Ev@Base 1.4
 _ZNSt6vectorIS_IN4CVC34ExprESaIS1_EESaIS3_EED2Ev@Base 1.4
 _ZNSt6vectorIS_IS_IN4CVC34ExprESaIS1_EESaIS3_EESaIS5_EED1Ev@Base 1.4
 _ZNSt6vectorIS_IS_IN4CVC34ExprESaIS1_EESaIS3_EESaIS5_EED2Ev@Base 1.4
 _ZNSt6vectorIS_ISsSaISsEESaIS1_EE14_M_fill_insertEN9__gnu_cxx17__normal_iteratorIPS1_S3_EEmRKS1_@Base 1.4
 _ZNSt6vectorIS_ISsSaISsEESaIS1_EEC1EmRKS1_RKS2_@Base 1.4
 _ZNSt6vectorIS_ISsSaISsEESaIS1_EEC2EmRKS1_RKS2_@Base 1.4
 _ZNSt6vectorIS_ISsSaISsEESaIS1_EED1Ev@Base 1.4
 _ZNSt6vectorIS_ISsSaISsEESaIS1_EED2Ev@Base 1.4
 _ZNSt6vectorISsSaISsEE13_M_insert_auxEN9__gnu_cxx17__normal_iteratorIPSsS1_EERKSs@Base 1.4
 _ZNSt6vectorISsSaISsEED1Ev@Base 1.4
 _ZNSt6vectorISsSaISsEED2Ev@Base 1.4
 _ZNSt6vectorISsSaISsEEaSERKS1_@Base 1.4
 _ZNSt8_Rb_treeIN4CVC34ExprESt4pairIKS1_S1_ESt10_Select1stIS4_ESt4lessIS1_ESaIS4_EE8_M_eraseEPSt13_Rb_tree_nodeIS4_E@Base 1.4
 _ZNSt8_Rb_treeISsSt4pairIKSsN4CVC36CLFlagEESt10_Select1stIS4_ESt4lessISsESaIS4_EE7_M_copyEPKSt13_Rb_tree_nodeIS4_EPSC_@Base 1.4
 _ZNSt8_Rb_treeISsSt4pairIKSsN4CVC36CLFlagEESt10_Select1stIS4_ESt4lessISsESaIS4_EE8_M_eraseEPSt13_Rb_tree_nodeIS4_E@Base 1.4
 _ZTIN4CVC34TypeE@Base 1.4
 _ZTIN4CVC424IllegalArgumentExceptionE@Base 1.4
 _ZTIN4CVC49ExceptionE@Base 1.4
 _ZTSN4CVC34TypeE@Base 1.4
 _ZTSN4CVC424IllegalArgumentExceptionE@Base 1.4
 _ZTSN4CVC49ExceptionE@Base 1.4
 _ZTVN4CVC34TypeE@Base 1.4
 _ZTVN4CVC424IllegalArgumentExceptionE@Base 1.4
 _ZTVN4CVC49ExceptionE@Base 1.4
 c_interface_error_flag@Base 1.4
 c_interface_error_message@Base 1.4
 c_interface_error_string@Base 1.4
 vc_andExpr@Base 1.4
 vc_andExprN@Base 1.4
 vc_arity@Base 1.4
 vc_arrayType@Base 1.4
 vc_assertFormula@Base 1.4
 vc_boolType@Base 1.4
 vc_boundVarExpr@Base 1.4
 vc_bv32ConstExprFromInt@Base 1.4
 vc_bv32LeftShiftExpr@Base 1.4
 vc_bv32MinusExpr@Base 1.4
 vc_bv32MultExpr@Base 1.4
 vc_bv32PlusExpr@Base 1.4
 vc_bv32RightShiftExpr@Base 1.4
 vc_bv32Type@Base 1.4
 vc_bvAndExpr@Base 1.4
 vc_bvBoolExtract@Base 1.4
 vc_bvConcatExpr@Base 1.4
 vc_bvConcatExprN@Base 1.4
 vc_bvConstExprFromInt@Base 1.4
 vc_bvConstExprFromLL@Base 1.4
 vc_bvConstExprFromStr@Base 1.4
 vc_bvCreateMemoryArray@Base 1.4
 vc_bvExtract@Base 1.4
 vc_bvGeExpr@Base 1.4
 vc_bvGtExpr@Base 1.4
 vc_bvLeExpr@Base 1.4
 vc_bvLeftShiftExpr@Base 1.4
 vc_bvLtExpr@Base 1.4
 vc_bvMinusExpr@Base 1.4
 vc_bvMultExpr@Base 1.4
 vc_bvNotExpr@Base 1.4
 vc_bvOrExpr@Base 1.4
 vc_bvPlusExpr@Base 1.4
 vc_bvReadMemoryArray@Base 1.4
 vc_bvRightShiftExpr@Base 1.4
 vc_bvSDivExpr@Base 1.4
 vc_bvSGeExpr@Base 1.4
 vc_bvSGtExpr@Base 1.4
 vc_bvSLeExpr@Base 1.4
 vc_bvSLtExpr@Base 1.4
 vc_bvSModExpr@Base 1.4
 vc_bvSRemExpr@Base 1.4
 vc_bvSignExtend@Base 1.4
 vc_bvType@Base 1.4
 vc_bvUDivExpr@Base 1.4
 vc_bvUMinusExpr@Base 1.4
 vc_bvURemExpr@Base 1.4
 vc_bvVar32DivByPowOfTwoExpr@Base 1.4
 vc_bvVar32LeftShiftExpr@Base 1.4
 vc_bvVar32RightShiftExpr@Base 1.4
 vc_bvWriteToMemoryArray@Base 1.4
 vc_bvXorExpr@Base 1.4
 vc_checkContinue@Base 1.4
 vc_compare_exprs@Base 1.4
 vc_createFlags@Base 1.4
 vc_createOp@Base 1.4
 vc_createOpDef@Base 1.4
 vc_createType@Base 1.4
 vc_createValidityChecker@Base 1.4
 vc_dataType1@Base 1.4
 vc_dataTypeMN@Base 1.4
 vc_dataTypeN@Base 1.4
 vc_datatypeConsExpr@Base 1.4
 vc_datatypeSelExpr@Base 1.4
 vc_datatypeTestExpr@Base 1.4
 vc_deleteExpr@Base 1.4
 vc_deleteFlags@Base 1.4
 vc_deleteOp@Base 1.4
 vc_deleteString@Base 1.4
 vc_deleteType@Base 1.4
 vc_deleteTypeVector@Base 1.4
 vc_deleteVector@Base 1.4
 vc_destroyValidityChecker@Base 1.4
 vc_distinctExpr@Base 1.4
 vc_divideExpr@Base 1.4
 vc_eqExpr@Base 1.4
 vc_existsExpr@Base 1.4
 vc_exprString@Base 1.4
 vc_falseExpr@Base 1.4
 vc_forallExpr@Base 1.4
 vc_funExpr1@Base 1.4
 vc_funExpr2@Base 1.4
 vc_funExpr3@Base 1.4
 vc_funExprN@Base 1.4
 vc_funType1@Base 1.4
 vc_funType2@Base 1.4
 vc_funType3@Base 1.4
 vc_funTypeN@Base 1.4
 vc_geExpr@Base 1.4
 vc_getAssumptions@Base 1.4
 vc_getAssumptionsTCC@Base 1.4
 vc_getAssumptionsUsed@Base 1.4
 vc_getBVInt@Base 1.4
 vc_getBVUnsigned@Base 1.4
 vc_getBaseType@Base 1.4
 vc_getBaseTypeOfType@Base 1.4
 vc_getBody@Base 1.4
 vc_getChild@Base 1.4
 vc_getClosure@Base 1.4
 vc_getConcreteModel@Base 1.4
 vc_getCounterExample@Base 1.4
 vc_getCurrentContext@Base 1.4
 vc_getEM@Base 1.4
 vc_getExistential@Base 1.4
 vc_getFun@Base 1.4
 vc_getImpliedLiteral@Base 1.4
 vc_getInt@Base 1.4
 vc_getInternalAssumptions@Base 1.4
 vc_getKind@Base 1.4
 vc_getKindInt@Base 1.4
 vc_getKindString@Base 1.4
 vc_getNumVars@Base 1.4
 vc_getProof@Base 1.4
 vc_getProofAssumptions@Base 1.4
 vc_getProofClosure@Base 1.4
 vc_getProofOfFile@Base 1.4
 vc_getProofQuery@Base 1.4
 vc_getProofTCC@Base 1.4
 vc_getTCC@Base 1.4
 vc_getType@Base 1.4
 vc_getTypePred@Base 1.4
 vc_getUserAssumptions@Base 1.4
 vc_getVar@Base 1.4
 vc_get_error_status@Base 1.4
 vc_get_error_string@Base 1.4
 vc_gtExpr@Base 1.4
 vc_idExpr@Base 1.4
 vc_iffExpr@Base 1.4
 vc_impliesExpr@Base 1.4
 vc_importExpr@Base 1.4
 vc_importType@Base 1.4
 vc_incomplete@Base 1.4
 vc_inconsistent@Base 1.4
 vc_intType@Base 1.4
 vc_isClosure@Base 1.4
 vc_isLambda@Base 1.4
 vc_isQuantifier@Base 1.4
 vc_isVar@Base 1.4
 vc_iteExpr@Base 1.4
 vc_lambdaExpr@Base 1.4
 vc_leExpr@Base 1.4
 vc_listExpr@Base 1.4
 vc_lookupOp@Base 1.4
 vc_lookupType@Base 1.4
 vc_lookupVar@Base 1.4
 vc_ltExpr@Base 1.4
 vc_minusExpr@Base 1.4
 vc_multExpr@Base 1.4
 vc_notExpr@Base 1.4
 vc_orExpr@Base 1.4
 vc_orExprN@Base 1.4
 vc_plusExpr@Base 1.4
 vc_plusExprN@Base 1.4
 vc_pop@Base 1.4
 vc_popto@Base 1.4
 vc_powExpr@Base 1.4
 vc_printExpr@Base 1.4
 vc_printExprFile@Base 1.4
 vc_printExprString@Base 1.4
 vc_print_statistics@Base 1.4
 vc_push@Base 1.4
 vc_query@Base 1.4
 vc_ratExpr@Base 1.4
 vc_ratExprFromStr1@Base 1.4
 vc_ratExprFromStr@Base 1.4
 vc_readExpr@Base 1.4
 vc_realType@Base 1.4
 vc_recSelectExpr@Base 1.4
 vc_recUpdateExpr@Base 1.4
 vc_recordExpr1@Base 1.4
 vc_recordExpr2@Base 1.4
 vc_recordExpr3@Base 1.4
 vc_recordExprN@Base 1.4
 vc_recordType1@Base 1.4
 vc_recordType2@Base 1.4
 vc_recordType3@Base 1.4
 vc_recordTypeN@Base 1.4
 vc_registerAtom@Base 1.4
 vc_reset_error_status@Base 1.4
 vc_restart@Base 1.4
 vc_returnFromCheck@Base 1.4
 vc_setBoolFlag@Base 1.4
 vc_setIntFlag@Base 1.4
 vc_setResourceLimit@Base 1.4
 vc_setStrSeqFlag@Base 1.4
 vc_setStringFlag@Base 1.4
 vc_setTriggers@Base 1.4
 vc_simplify@Base 1.4
 vc_stackLevel@Base 1.4
 vc_stringExpr@Base 1.4
 vc_subRangeType@Base 1.4
 vc_substExpr@Base 1.4
 vc_subtypeType@Base 1.4
 vc_toExpr@Base 1.4
 vc_trueExpr@Base 1.4
 vc_tupleExprN@Base 1.4
 vc_tupleSelectExpr@Base 1.4
 vc_tupleType2@Base 1.4
 vc_tupleType3@Base 1.4
 vc_tupleTypeN@Base 1.4
 vc_tupleUpdateExpr@Base 1.4
 vc_typeString@Base 1.4
 vc_uminusExpr@Base 1.4
 vc_varExpr@Base 1.4
 vc_varExprDef@Base 1.4
 vc_writeExpr@Base 1.4
